 msgpackBinding

 Timestamp is 5d12a7c4 (Wed Jun 26 00:01:24 2019)

 Preferred load address is 0000000180000000

 Start         Length     Name                   Class
 0001:00000000 00000090H .text$di                CODE
 0001:00000090 0001ac50H .text$mn                CODE
 0001:0001ace0 00000020H .text$mn$00             CODE
 0001:0001ad00 00000530H .text$x                 CODE
 0001:0001b230 00000107H .text$yd                CODE
 0002:00000000 00000260H .idata$5                DATA
 0002:00000260 00000010H .00cfg                  DATA
 0002:00000270 00000008H .CRT$XCA                DATA
 0002:00000278 00000018H .CRT$XCU                DATA
 0002:00000290 00000008H .CRT$XCZ                DATA
 0002:00000298 00000008H .CRT$XIA                DATA
 0002:000002a0 00000018H .CRT$XIC                DATA
 0002:000002b8 00000008H .CRT$XIZ                DATA
 0002:000002c0 00000008H .CRT$XPA                DATA
 0002:000002c8 00000010H .CRT$XPX                DATA
 0002:000002d8 00000008H .CRT$XPXA               DATA
 0002:000002e0 00000008H .CRT$XPZ                DATA
 0002:000002e8 00000008H .CRT$XTA                DATA
 0002:000002f0 00000010H .CRT$XTZ                DATA
 0002:000002f8 00000000H .gfids$y                DATA
 0002:00000300 00008a40H .rdata                  DATA
 0002:00008d40 0000037cH .rdata$r                DATA
 0002:000090bc 00000404H .rdata$zzzdbg           DATA
 0002:000094c0 00000008H .rtc$IAA                DATA
 0002:000094c8 00000008H .rtc$IZZ                DATA
 0002:000094d0 00000008H .rtc$TAA                DATA
 0002:000094d8 00000008H .rtc$TZZ                DATA
 0002:000094e0 000017f0H .xdata                  DATA
 0002:0000acd0 00000234H .xdata$x                DATA
 0002:0000af04 00000020H .didat$2                DATA
 0002:0000af24 00000024H .didat$3                DATA
 0002:0000af48 000001c8H .didat$4                DATA
 0002:0000b110 00000e08H .didat$6                DATA
 0002:0000bf18 000001c8H .didat$7                DATA
 0002:0000c0e0 0000034cH .edata                  DATA
 0002:0000c42c 00000014H .idata$2                DATA
 0002:0000c440 00000018H .idata$3                DATA
 0002:0000c458 00000260H .idata$4                DATA
 0002:0000c6b8 00000584H .idata$6                DATA
 0003:00000000 00000a90H .data                   DATA
 0003:00000a90 00000140H .data$r                 DATA
 0003:00000bd0 000001d0H .didat$5                DATA
 0003:00000da0 00001264H .bss                    DATA
 0004:00000000 00001920H .pdata                  DATA
 0005:00000000 00000060H .rsrc$01                DATA
 0005:00000060 00000180H .rsrc$02                DATA

  Address         Publics by Value              Rva+Base               Lib:Object

 0000:00000000       __hybrid_code_map_count    0000000000000000     <absolute>
 0000:00000000       __hybrid_code_map          0000000000000000     <absolute>
 0000:00000000       __guard_iat_count          0000000000000000     <absolute>
 0000:00000000       __guard_longjmp_count      0000000000000000     <absolute>
 0000:00000000       __guard_longjmp_table      0000000000000000     <absolute>
 0000:00000000       __volatile_metadata        0000000000000000     <absolute>
 0000:00000000       __guard_iat_table          0000000000000000     <absolute>
 0000:00000000       __guard_fids_count         0000000000000000     <absolute>
 0000:00000000       ___safe_se_handler_count   0000000000000000     <absolute>
 0000:00000000       __enclave_config           0000000000000000     <absolute>
 0000:00000000       ___safe_se_handler_table   0000000000000000     <absolute>
 0000:00000000       __guard_fids_table         0000000000000000     <absolute>
 0000:00000000       __hybrid_auxiliary_iat     0000000000000000     <absolute>
 0000:00000000       __dynamic_value_reloc_table 0000000000000000     <absolute>
 0000:00000100       __guard_flags              0000000000000100     <absolute>
 0000:00000000       __ImageBase                0000000180000000     <linker-defined>
 0001:00000220       ?ThrowError@Nan@@YAXPEBD@Z 0000000180001220 f i msgpack.obj
 0001:000002c0       ??1HandleScope@Nan@@QEAA@XZ 00000001800012c0 f i msgpack.obj
 0001:000002d0       ?DecodeWrite@Nan@@YA_JPEAD_KV?$Local@VValue@v8@@@v8@@W4Encoding@1@@Z 00000001800012d0 f i msgpack.obj
 0001:00000320       ??0MsgpackException@@QEAA@PEBD@Z 0000000180001320 f i msgpack.obj
 0001:00000380       ??1MsgpackZone@@QEAA@XZ    0000000180001380 f i msgpack.obj
 0001:00001710       ?init@@YAXV?$Local@VObject@v8@@@v8@@@Z 0000000180002710 f   msgpack.obj
 0001:00001990       ?_Growmap@?$deque@PEAUmsgpack_sbuffer@@V?$allocator@PEAUmsgpack_sbuffer@@@std@@@std@@IEAAX_K@Z 0000000180002990 f i msgpack.obj
 0001:00001ba0       ?_Xlen@?$deque@PEAUmsgpack_sbuffer@@V?$allocator@PEAUmsgpack_sbuffer@@@std@@@std@@IEBAXXZ 0000000180002ba0 f i msgpack.obj
 0001:00001bc0       ??$New@VFunctionTemplate@v8@@@Nan@@YA?AV?$Local@VFunctionTemplate@v8@@@v8@@P6AXAEBV?$FunctionCallbackInfo@VValue@v8@@@0@@ZV?$Local@VValue@v8@@@2@@Z 0000000180002bc0 f i msgpack.obj
 0001:00001dc0       msgpack_zone_malloc_expand 0000000180002dc0 f   libmsgpack:zone.obj
 0001:00001e40       msgpack_zone_is_empty      0000000180002e40 f   libmsgpack:zone.obj
 0001:00001e70       msgpack_zone_destroy       0000000180002e70 f   libmsgpack:zone.obj
 0001:00001ee0       msgpack_zone_clear         0000000180002ee0 f   libmsgpack:zone.obj
 0001:00001f70       msgpack_zone_init          0000000180002f70 f   libmsgpack:zone.obj
 0001:00001fd0       msgpack_zone_new           0000000180002fd0 f   libmsgpack:zone.obj
 0001:00002050       msgpack_zone_free          0000000180003050 f   libmsgpack:zone.obj
 0001:00002cc0       msgpack_unpacker_init      0000000180003cc0 f   libmsgpack:unpack.obj
 0001:00002dc0       msgpack_unpacker_destroy   0000000180003dc0 f   libmsgpack:unpack.obj
 0001:00002e10       msgpack_unpacker_new       0000000180003e10 f   libmsgpack:unpack.obj
 0001:00002e70       msgpack_unpacker_free      0000000180003e70 f   libmsgpack:unpack.obj
 0001:00002ed0       msgpack_unpacker_expand_buffer 0000000180003ed0 f   libmsgpack:unpack.obj
 0001:00003060       msgpack_unpacker_execute   0000000180004060 f   libmsgpack:unpack.obj
 0001:000030b0       msgpack_unpacker_data      00000001800040b0 f   libmsgpack:unpack.obj
 0001:000030d0       msgpack_unpacker_release_zone 00000001800040d0 f   libmsgpack:unpack.obj
 0001:00003130       msgpack_unpacker_reset_zone 0000000180004130 f   libmsgpack:unpack.obj
 0001:00003140       msgpack_unpacker_flush_zone 0000000180004140 f   libmsgpack:unpack.obj
 0001:00003180       msgpack_unpacker_reset     0000000180004180 f   libmsgpack:unpack.obj
 0001:000031b0       msgpack_unpacker_next      00000001800041b0 f   libmsgpack:unpack.obj
 0001:000032b0       msgpack_unpack             00000001800042b0 f   libmsgpack:unpack.obj
 0001:00003390       msgpack_unpack_next        0000000180004390 f   libmsgpack:unpack.obj
 0001:000034f0       __local_stdio_printf_options 00000001800044f0 f i libmsgpack:objectc.obj
 0001:00003500       fprintf                    0000000180004500 f i libmsgpack:objectc.obj
 0001:00003660       msgpack_pack_object        0000000180004660 f   libmsgpack:objectc.obj
 0001:00003ba0       msgpack_object_print       0000000180004ba0 f   libmsgpack:objectc.obj
 0001:00003f00       msgpack_object_equal       0000000180004f00 f   libmsgpack:objectc.obj
 0001:00004118       __imp_load_?Value@External@v8@@QEBAPEAXXZ 0000000180005118 f   node:node.exe
 0001:00004124       __tailMerge_node_exe       0000000180005124     node:node.exe
 0001:0000419d       __imp_load_?New@External@v8@@SA?AV?$Local@VExternal@v8@@@2@PEAVIsolate@2@PEAX@Z 000000018000519d f   node:node.exe
 0001:000041a9       __imp_load_?New@Integer@v8@@SA?AV?$Local@VInteger@v8@@@2@PEAVIsolate@2@H@Z 00000001800051a9 f   node:node.exe
 0001:000041b5       __imp_load_?ThrowException@Isolate@v8@@QEAA?AV?$Local@VValue@v8@@@2@V32@@Z 00000001800051b5 f   node:node.exe
 0001:000041c1       __imp_load_?GetCurrentContext@Isolate@v8@@QEAA?AV?$Local@VContext@v8@@@2@XZ 00000001800051c1 f   node:node.exe
 0001:000041cd       __imp_load_?GetCurrent@Isolate@v8@@SAPEAV12@XZ 00000001800051cd f   node:node.exe
 0001:000041d9       __imp_load_?CreateHandle@HandleScope@v8@@KAPEAPEAVObject@internal@2@PEAVIsolate@42@PEAV342@@Z 00000001800051d9 f   node:node.exe
 0001:000041e5       __imp_load_?CreateHandle@HandleScope@v8@@CAPEAPEAVObject@internal@2@PEAVHeapObject@42@PEAV342@@Z 00000001800051e5 f   node:node.exe
 0001:000041f1       __imp_load_??1HandleScope@v8@@QEAA@XZ 00000001800051f1 f   node:node.exe
 0001:000041fd       __imp_load_??0HandleScope@v8@@QEAA@PEAVIsolate@1@@Z 00000001800051fd f   node:node.exe
 0001:00004209       __imp_load_?Error@Exception@v8@@SA?AV?$Local@VValue@v8@@@2@V?$Local@VString@v8@@@2@@Z 0000000180005209 f   node:node.exe
 0001:00004215       __imp_load_?TypeError@Exception@v8@@SA?AV?$Local@VValue@v8@@@2@V?$Local@VString@v8@@@2@@Z 0000000180005215 f   node:node.exe
 0001:00004221       __imp_load_?New@Array@v8@@SA?AV?$Local@VArray@v8@@@2@PEAVIsolate@2@H@Z 0000000180005221 f   node:node.exe
 0001:0000422d       __imp_load_?Length@Array@v8@@QEBAIXZ 000000018000522d f   node:node.exe
 0001:00004239       __imp_load_?GetFunction@FunctionTemplate@v8@@QEAA?AV?$Local@VFunction@v8@@@2@XZ 0000000180005239 f   node:node.exe
 0001:00004245       __imp_load_?GetFunction@FunctionTemplate@v8@@QEAA?AV?$MaybeLocal@VFunction@v8@@@2@V?$Local@VContext@v8@@@2@@Z 0000000180005245 f   node:node.exe
 0001:00004251       __imp_load_?New@FunctionTemplate@v8@@SA?AV?$Local@VFunctionTemplate@v8@@@2@PEAVIsolate@2@P6AXAEBV?$FunctionCallbackInfo@VValue@v8@@@2@@ZV?$Local@VValue@v8@@@2@V?$Local@VSignature@v8@@@2@HW4ConstructorBehavior@2@W4SideEffectType@2@@Z 0000000180005251 f   node:node.exe
 0001:0000425d       __imp_load_?ToLocalEmpty@V8@v8@@CAXXZ 000000018000525d f   node:node.exe
 0001:00004269       __imp_load_?DisposeGlobal@V8@v8@@CAXPEAPEAVObject@internal@2@@Z 0000000180005269 f   node:node.exe
 0001:00004275       __imp_load_?GlobalizeReference@V8@v8@@CAPEAPEAVObject@internal@2@PEAVIsolate@42@PEAPEAV342@@Z 0000000180005275 f   node:node.exe
 0001:00004281       __imp_load_?NumberValue@Value@v8@@QEBANXZ 0000000180005281 f   node:node.exe
 0001:0000428d       __imp_load_?BooleanValue@Value@v8@@QEBA_NXZ 000000018000528d f   node:node.exe
 0001:00004299       __imp_load_?ToInteger@Value@v8@@QEBA?AV?$MaybeLocal@VInteger@v8@@@2@V?$Local@VContext@v8@@@2@@Z 0000000180005299 f   node:node.exe
 0001:000042a5       __imp_load_?IsDate@Value@v8@@QEBA_NXZ 00000001800052a5 f   node:node.exe
 0001:000042b1       __imp_load_?IsNumber@Value@v8@@QEBA_NXZ 00000001800052b1 f   node:node.exe
 0001:000042bd       __imp_load_?IsBoolean@Value@v8@@QEBA_NXZ 00000001800052bd f   node:node.exe
 0001:000042c9       __imp_load_?IsArray@Value@v8@@QEBA_NXZ 00000001800052c9 f   node:node.exe
 0001:000042d5       __imp_load_?IsFunction@Value@v8@@QEBA_NXZ 00000001800052d5 f   node:node.exe
 0001:000042e1       __imp_load_?Escape@EscapableHandleScope@v8@@AEAAPEAPEAVObject@internal@2@PEAPEAV342@@Z 00000001800052e1 f   node:node.exe
 0001:000042ed       __imp_load_??0EscapableHandleScope@v8@@QEAA@PEAVIsolate@1@@Z 00000001800052ed f   node:node.exe
 0001:000042f9       __imp_load_?NewFromUtf8@String@v8@@SA?AV?$MaybeLocal@VString@v8@@@2@PEAVIsolate@2@PEBDW4NewStringType@2@H@Z 00000001800052f9 f   node:node.exe
 0001:00004305       __imp_load_?New@Number@v8@@SA?AV?$Local@VNumber@v8@@@2@PEAVIsolate@2@N@Z 0000000180005305 f   node:node.exe
 0001:00004311       __imp_load_?SlowGetInternalField@Object@v8@@AEAA?AV?$Local@VValue@v8@@@2@H@Z 0000000180005311 f   node:node.exe
 0001:0000431d       __imp_load_?New@Object@v8@@SA?AV?$Local@VObject@v8@@@2@PEAVIsolate@2@@Z 000000018000531d f   node:node.exe
 0001:00004329       __imp_load_?SetInternalField@Object@v8@@QEAAXHV?$Local@VValue@v8@@@2@@Z 0000000180005329 f   node:node.exe
 0001:00004335       __imp_load_?GetPropertyNames@Object@v8@@QEAA?AV?$Local@VArray@v8@@@2@XZ 0000000180005335 f   node:node.exe
 0001:00004341       __imp_load_?Has@Object@v8@@QEAA_NV?$Local@VValue@v8@@@2@@Z 0000000180005341 f   node:node.exe
 0001:0000434d       __imp_load_?Get@Object@v8@@QEAA?AV?$Local@VValue@v8@@@2@V32@@Z 000000018000534d f   node:node.exe
 0001:00004359       __imp_load_?Get@Object@v8@@QEAA?AV?$Local@VValue@v8@@@2@I@Z 0000000180005359 f   node:node.exe
 0001:00004365       __imp_load_?Set@Object@v8@@QEAA_NV?$Local@VValue@v8@@@2@0@Z 0000000180005365 f   node:node.exe
 0001:00004371       __imp_load_?Set@Object@v8@@QEAA?AV?$Maybe@_N@2@V?$Local@VContext@v8@@@2@V?$Local@VValue@v8@@@2@1@Z 0000000180005371 f   node:node.exe
 0001:0000437d       __imp_load_?Set@Object@v8@@QEAA_NIV?$Local@VValue@v8@@@2@@Z 000000018000537d f   node:node.exe
 0001:00004389       __imp_load_?Call@Function@v8@@QEAA?AV?$Local@VValue@v8@@@2@V32@HQEAV32@@Z 0000000180005389 f   node:node.exe
 0001:00004395       __imp_load_?SetInternalFieldCount@ObjectTemplate@v8@@QEAAXH@Z 0000000180005395 f   node:node.exe
 0001:000043a1       __imp_load_?NewInstance@ObjectTemplate@v8@@QEAA?AV?$MaybeLocal@VObject@v8@@@2@V?$Local@VContext@v8@@@2@@Z 00000001800053a1 f   node:node.exe
 0001:000043ad       __imp_load_?New@ObjectTemplate@v8@@SA?AV?$Local@VObjectTemplate@v8@@@2@PEAVIsolate@2@V?$Local@VFunctionTemplate@v8@@@2@@Z 00000001800053ad f   node:node.exe
 0001:000043b9       __imp_load_?DecodeBytes@node@@YA_JPEAVIsolate@v8@@V?$Local@VValue@v8@@@3@W4encoding@1@@Z 00000001800053b9 f   node:node.exe
 0001:000043c5       __imp_load_?DecodeWrite@node@@YA_JPEAVIsolate@v8@@PEAD_KV?$Local@VValue@v8@@@3@W4encoding@1@@Z 00000001800053c5 f   node:node.exe
 0001:000043d1       __imp_load_node_module_register 00000001800053d1 f   node:node.exe
 0001:000043dd       __imp_load_?HasInstance@Buffer@node@@YA_NV?$Local@VValue@v8@@@v8@@@Z 00000001800053dd f   node:node.exe
 0001:000043e9       __imp_load_?New@Buffer@node@@YA?AV?$MaybeLocal@VObject@v8@@@v8@@PEAVIsolate@4@PEAD_KP6AX1PEAX@Z3@Z 00000001800053e9 f   node:node.exe
 0001:000043f5       __imp_load_?Data@Buffer@node@@YAPEADV?$Local@VObject@v8@@@v8@@@Z 00000001800053f5 f   node:node.exe
 0001:00004401       __imp_load_?Copy@Buffer@node@@YA?AV?$MaybeLocal@VObject@v8@@@v8@@PEAVIsolate@4@PEBD_K@Z 0000000180005401 f   node:node.exe
 0001:0000440d       __imp_load_?Length@Buffer@node@@YA_KV?$Local@VObject@v8@@@v8@@@Z 000000018000540d f   node:node.exe
 0001:00004419       __imp_load_?ToObject@Value@v8@@QEBA?AV?$Local@VObject@v8@@@2@XZ 0000000180005419 f   node:node.exe
 0001:00004425       __imp_load_??1EscapableHandleScope@v8@@QEAA@XZ 0000000180005425 f   node:node.exe
 0001:00004434       ??0bad_alloc@std@@QEAA@AEBV01@@Z 0000000180005434 f i libcpmt:xthrow.obj
 0001:00004474       ??0bad_alloc@std@@QEAA@XZ  0000000180005474 f i libcpmt:xthrow.obj
 0001:00004494       ??0exception@std@@QEAA@AEBV01@@Z 0000000180005494 f i libcpmt:xthrow.obj
 0001:000044cc       ??0length_error@std@@QEAA@AEBV01@@Z 00000001800054cc f i libcpmt:xthrow.obj
 0001:0000450c       ??0length_error@std@@QEAA@PEBD@Z 000000018000550c f i libcpmt:xthrow.obj
 0001:00004558       ??0logic_error@std@@QEAA@AEBV01@@Z 0000000180005558 f i libcpmt:xthrow.obj
 0001:00004598       ??1length_error@std@@UEAA@XZ 0000000180005598 f i libcpmt:xthrow.obj
 0001:00004598       ??1bad_alloc@std@@UEAA@XZ  0000000180005598 f i libcpmt:xthrow.obj
 0001:00004598       ??1bad_array_new_length@std@@UEAA@XZ 0000000180005598 f i LIBCMT:throw_bad_alloc.obj
 0001:00004598       ??1bad_exception@std@@UEAA@XZ 0000000180005598 f i libvcruntime:frame.obj
 0001:000045ac       ??_Ebad_exception@std@@UEAAPEAXI@Z 00000001800055ac f i libvcruntime:frame.obj
 0001:000045ac       ??_Gbad_alloc@std@@UEAAPEAXI@Z 00000001800055ac f i libcpmt:xthrow.obj
 0001:000045ac       ??_Elength_error@std@@UEAAPEAXI@Z 00000001800055ac f i libcpmt:xthrow.obj
 0001:000045ac       ??_Gexception@std@@UEAAPEAXI@Z 00000001800055ac f i libcpmt:xthrow.obj
 0001:000045ac       ??_Ebad_array_new_length@std@@UEAAPEAXI@Z 00000001800055ac f i LIBCMT:throw_bad_alloc.obj
 0001:000045ac       ??_Glength_error@std@@UEAAPEAXI@Z 00000001800055ac f i libcpmt:xthrow.obj
 0001:000045ac       ??_Gbad_exception@std@@UEAAPEAXI@Z 00000001800055ac f i libvcruntime:frame.obj
 0001:000045ac       ??_Elogic_error@std@@UEAAPEAXI@Z 00000001800055ac f i libcpmt:xthrow.obj
 0001:000045ac       ??_Ebad_alloc@std@@UEAAPEAXI@Z 00000001800055ac f i libcpmt:xthrow.obj
 0001:000045ac       ??_Glogic_error@std@@UEAAPEAXI@Z 00000001800055ac f i libcpmt:xthrow.obj
 0001:000045ac       ??_Gbad_array_new_length@std@@UEAAPEAXI@Z 00000001800055ac f i LIBCMT:throw_bad_alloc.obj
 0001:000045ac       ??_Eexception@std@@UEAAPEAXI@Z 00000001800055ac f i libcpmt:xthrow.obj
 0001:000045f0       ?_Xlength_error@std@@YAXPEBD@Z 00000001800055f0 f   libcpmt:xthrow.obj
 0001:00004614       ?what@exception@std@@UEBAPEBDXZ 0000000180005614 f i libcpmt:xthrow.obj
 0001:00004640       __security_check_cookie    0000000180005640 f   LIBCMT:amdsecgs.obj
 0001:00004664       ??2@YAPEAX_K@Z             0000000180005664 f   LIBCMT:new_scalar.obj
 0001:000046a0       __scrt_acquire_startup_lock 00000001800056a0 f   LIBCMT:utility.obj
 0001:000046dc       __scrt_dllmain_after_initialize_c 00000001800056dc f   LIBCMT:utility.obj
 0001:00004710       __scrt_dllmain_before_initialize_c 0000000180005710 f   LIBCMT:utility.obj
 0001:00004728       __scrt_dllmain_crt_thread_attach 0000000180005728 f   LIBCMT:utility.obj
 0001:00004750       __scrt_dllmain_crt_thread_detach 0000000180005750 f   LIBCMT:utility.obj
 0001:00004768       __scrt_dllmain_exception_filter 0000000180005768 f   LIBCMT:utility.obj
 0001:000047c8       __scrt_dllmain_uninitialize_c 00000001800057c8 f   LIBCMT:utility.obj
 0001:000047f8       __scrt_dllmain_uninitialize_critical 00000001800057f8 f   LIBCMT:utility.obj
 0001:0000480c       __scrt_initialize_crt      000000018000580c f   LIBCMT:utility.obj
 0001:00004858       __scrt_initialize_onexit_tables 0000000180005858 f   LIBCMT:utility.obj
 0001:00004930       __scrt_is_nonwritable_in_current_image 0000000180005930 f   LIBCMT:utility.obj
 0001:000049cc       __scrt_release_startup_lock 00000001800059cc f   LIBCMT:utility.obj
 0001:000049f0       __scrt_uninitialize_crt    00000001800059f0 f   LIBCMT:utility.obj
 0001:00004a1c       _onexit                    0000000180005a1c f   LIBCMT:utility.obj
 0001:00004a6c       atexit                     0000000180005a6c f   LIBCMT:utility.obj
 0001:00004a84       ??3@YAXPEAX_K@Z            0000000180005a84 f   LIBCMT:delete_scalar_size.obj
 0001:00004a8c       ??_Gtype_info@@UEAAPEAXI@Z 0000000180005a8c f i LIBCMT:std_type_info_static.obj
 0001:00004a8c       ??_Etype_info@@UEAAPEAXI@Z 0000000180005a8c f i LIBCMT:std_type_info_static.obj
 0001:00004de8       _DllMainCRTStartup         0000000180005de8 f   LIBCMT:dll_dllmain.obj
 0001:00004e28       __raise_securityfailure    0000000180005e28 f   LIBCMT:gs_report.obj
 0001:00004e5c       __report_gsfailure         0000000180005e5c f   LIBCMT:gs_report.obj
 0001:00004f30       __report_rangecheckfailure 0000000180005f30 f   LIBCMT:gs_report.obj
 0001:00004f44       __report_securityfailure   0000000180005f44 f   LIBCMT:gs_report.obj
 0001:000050c4       ??0bad_array_new_length@std@@QEAA@AEBV01@@Z 00000001800060c4 f i LIBCMT:throw_bad_alloc.obj
 0001:00005104       ??0bad_array_new_length@std@@QEAA@XZ 0000000180006104 f i LIBCMT:throw_bad_alloc.obj
 0001:00005124       ?__scrt_throw_std_bad_alloc@@YAXXZ 0000000180006124 f   LIBCMT:throw_bad_alloc.obj
 0001:00005144       ?__scrt_throw_std_bad_array_new_length@@YAXXZ 0000000180006144 f   LIBCMT:throw_bad_alloc.obj
 0001:00005164       __isa_available_init       0000000180006164 f   LIBCMT:cpu_disp.obj
 0001:00005320       _get_startup_argv_mode     0000000180006320 f   LIBCMT:argv_mode.obj
 0001:00005320       DllMain                    0000000180006320 f   LIBCMT:dll_dllmain_stub.obj
 0001:00005328       __scrt_is_ucrt_dll_in_use  0000000180006328 f   LIBCMT:ucrt_detection.obj
 0001:00005334       __crt_debugger_hook        0000000180006334 f   LIBCMT:utility_desktop.obj
 0001:0000533c       __scrt_fastfail            000000018000633c f   LIBCMT:utility_desktop.obj
 0001:00005488       _guard_check_icall_nop     0000000180006488 f i LIBCMT:guard_support.obj
 0001:0000548c       ??3@YAXPEAX@Z              000000018000648c f   LIBCMT:delete_scalar.obj
 0001:00005494       __security_init_cookie     0000000180006494 f   LIBCMT:gs_support.obj
 0001:00005540       ?__scrt_initialize_type_info@@YAXXZ 0000000180006540 f   LIBCMT:tncleanup.obj
 0001:00005550       ?__scrt_uninitialize_type_info@@YAXXZ 0000000180006550 f   LIBCMT:tncleanup.obj
 0001:0000555c       __local_stdio_scanf_options 000000018000655c f i LIBCMT:default_local_stdio_options.obj
 0001:00005564       __scrt_initialize_default_local_stdio_options 0000000180006564 f   LIBCMT:default_local_stdio_options.obj
 0001:00005580       __scrt_get_dyn_tls_init_callback 0000000180006580 f   LIBCMT:dyn_tls_init.obj
 0001:00005588       _RTC_Initialize            0000000180006588 f   LIBCMT:initsect.obj
 0001:000055c4       _RTC_Terminate             00000001800065c4 f   LIBCMT:initsect.obj
 0001:00005600       ??$_CallSETranslator@V__FrameHandler3@@@@YAHPEAUEHExceptionRecord@@PEA_KPEAU_CONTEXT@@PEAU_xDISPATCHER_CONTEXT@@PEBU_s_FuncInfo@@K1@Z 0000000180006600 f i libvcruntime:risctrnsctrl.obj
 0001:00005654       ?CatchTryBlock@__FrameHandler3@@SAPEBU_s_TryBlockMapEntry@@PEBU_s_FuncInfo@@H@Z 0000000180006654 f   libvcruntime:risctrnsctrl.obj
 0001:000056ac       ?ExecutionInCatch@__FrameHandler3@@SA_NPEAU_xDISPATCHER_CONTEXT@@PEBU_s_FuncInfo@@@Z 00000001800066ac f   libvcruntime:risctrnsctrl.obj
 0001:000056d8       ?FrameUnwindToEmptyState@__FrameHandler3@@SAXPEA_KPEAU_xDISPATCHER_CONTEXT@@PEBU_s_FuncInfo@@@Z 00000001800066d8 f   libvcruntime:risctrnsctrl.obj
 0001:0000573c       ?GetEstablisherFrame@__FrameHandler3@@SAPEA_KPEA_KPEAU_xDISPATCHER_CONTEXT@@PEBU_s_FuncInfo@@0@Z 000000018000673c f   libvcruntime:risctrnsctrl.obj
 0001:00005808       ?GetRangeOfTrysToCheck@__FrameHandler3@@SA?AU?$pair@Viterator@TryBlockMap@__FrameHandler3@@V123@@std@@AEAVTryBlockMap@1@HH@Z 0000000180006808 f   libvcruntime:risctrnsctrl.obj
 0001:00005964       ?UnwindNestedFrames@__FrameHandler3@@SAXPEA_KPEAUEHExceptionRecord@@PEAU_CONTEXT@@0PEAXPEBU_s_FuncInfo@@HHPEBU_s_HandlerType@@PEAU_xDISPATCHER_CONTEXT@@E@Z 0000000180006964 f   libvcruntime:risctrnsctrl.obj
 0001:00005a88       _CreateFrameInfo           0000000180006a88 f   libvcruntime:risctrnsctrl.obj
 0001:00005ac4       _FindAndUnlinkFrame        0000000180006ac4 f   libvcruntime:risctrnsctrl.obj
 0001:00005b18       _GetImageBase              0000000180006b18 f   libvcruntime:risctrnsctrl.obj
 0001:00005b2c       _GetThrowImageBase         0000000180006b2c f   libvcruntime:risctrnsctrl.obj
 0001:00005b40       _SetImageBase              0000000180006b40 f   libvcruntime:risctrnsctrl.obj
 0001:00005b58       _SetThrowImageBase         0000000180006b58 f   libvcruntime:risctrnsctrl.obj
 0001:00005b70       __CxxFrameHandler3         0000000180006b70 f   libvcruntime:risctrnsctrl.obj
 0001:00005bf0       __DestructExceptionObject  0000000180006bf0 f   libvcruntime:ehhelpers.obj
 0001:00005c64       ?_CallMemberFunction0@@YAXQEAX0@Z 0000000180006c64 f i libvcruntime:ehhelpers.obj
 0001:00005c68       _IsExceptionObjectToBeDestroyed 0000000180006c68 f   libvcruntime:ehhelpers.obj
 0001:00005c98       __AdjustPointer            0000000180006c98 f   libvcruntime:ehhelpers.obj
 0001:00005cbc       __FrameUnwindFilter        0000000180006cbc f   libvcruntime:ehhelpers.obj
 0001:00005d08       __std_terminate            0000000180006d08 f   libvcruntime:ehhelpers.obj
 0001:00005d14       __std_exception_copy       0000000180006d14 f   libvcruntime:std_exception.obj
 0001:00005da4       __std_exception_destroy    0000000180006da4 f   libvcruntime:std_exception.obj
 0001:00005dcc       _CxxThrowException         0000000180006dcc f   libvcruntime:throw.obj
 0001:00005e8c       __vcrt_initialize          0000000180006e8c f   libvcruntime:initialization.obj
 0001:00005ec0       __vcrt_thread_attach       0000000180006ec0 f   libvcruntime:initialization.obj
 0001:00005ed4       __vcrt_thread_detach       0000000180006ed4 f   libvcruntime:initialization.obj
 0001:00005ee8       __vcrt_uninitialize        0000000180006ee8 f   libvcruntime:initialization.obj
 0001:00005f08       __vcrt_uninitialize_critical 0000000180006f08 f   libvcruntime:initialization.obj
 0001:00005f18       __C_specific_handler       0000000180006f18 f   libvcruntime:riscchandler.obj
 0001:00006140       memset_repmovs             0000000180007140 f   libvcruntime:memset.obj
 0001:00006160       memset                     0000000180007160 f   libvcruntime:memset.obj
 0001:000062f0       __std_type_info_compare    00000001800072f0 f   libvcruntime:std_type_info.obj
 0001:00006318       __std_type_info_destroy_list 0000000180007318 f   libvcruntime:std_type_info.obj
 0001:00006344       __vcrt_freefls             0000000180007344 f   libvcruntime:per_thread_data.obj
 0001:00006364       __vcrt_freeptd             0000000180007364 f   libvcruntime:per_thread_data.obj
 0001:000063b4       __vcrt_getptd              00000001800073b4 f   libvcruntime:per_thread_data.obj
 0001:000063d0       __vcrt_getptd_noexit       00000001800073d0 f   libvcruntime:per_thread_data.obj
 0001:0000649c       __vcrt_initialize_ptd      000000018000749c f   libvcruntime:per_thread_data.obj
 0001:000064f0       __vcrt_uninitialize_ptd    00000001800074f0 f   libvcruntime:per_thread_data.obj
 0001:00006514       ?GetCurrentState@__FrameHandler3@@SAHPEA_KPEAU_xDISPATCHER_CONTEXT@@PEBU_s_FuncInfo@@@Z 0000000180007514 f   libvcruntime:ehstate.obj
 0001:0000653c       ?GetUnwindTryBlock@__FrameHandler3@@SAHPEA_KPEAU_xDISPATCHER_CONTEXT@@PEBU_s_FuncInfo@@@Z 000000018000753c f   libvcruntime:ehstate.obj
 0001:00006568       ?SetState@__FrameHandler3@@SAXPEA_KPEBU_s_FuncInfo@@H@Z 0000000180007568 f   libvcruntime:ehstate.obj
 0001:00006574       ?SetUnwindTryBlock@__FrameHandler3@@SAXPEA_KPEAU_xDISPATCHER_CONTEXT@@PEBU_s_FuncInfo@@H@Z 0000000180007574 f   libvcruntime:ehstate.obj
 0001:000065b0       ?StateFromControlPc@__FrameHandler3@@SAHPEBU_s_FuncInfo@@PEAU_xDISPATCHER_CONTEXT@@@Z 00000001800075b0 f   libvcruntime:ehstate.obj
 0001:000065b8       ?StateFromIp@__FrameHandler3@@SAHPEBU_s_FuncInfo@@PEAU_xDISPATCHER_CONTEXT@@_K@Z 00000001800075b8 f   libvcruntime:ehstate.obj
 0001:00007044       ??$TypeMatchHelper@V__FrameHandler3@@@@YAHPEBU_s_HandlerType@@PEBU_s_CatchableType@@PEBU_s_ThrowInfo@@@Z 0000000180008044 f i libvcruntime:frame.obj
 0001:00007188       ??$__InternalCxxFrameHandler@V__FrameHandler3@@@@YA?AW4_EXCEPTION_DISPOSITION@@PEAUEHExceptionRecord@@PEA_KPEAU_CONTEXT@@PEAU_xDISPATCHER_CONTEXT@@PEBU_s_FuncInfo@@H1E@Z 0000000180008188 f i libvcruntime:frame.obj
 0001:000073d0       ??0bad_exception@std@@QEAA@AEBV01@@Z 00000001800083d0 f i libvcruntime:frame.obj
 0001:00007410       ??0bad_exception@std@@QEAA@XZ 0000000180008410 f i libvcruntime:frame.obj
 0001:00007430       ?CxxCallCatchBlock@__FrameHandler3@@SAPEAXPEAU_EXCEPTION_RECORD@@@Z 0000000180008430 f   libvcruntime:frame.obj
 0001:000076a4       ?FrameUnwindToState@__FrameHandler3@@SAXPEA_KPEAU_xDISPATCHER_CONTEXT@@PEBU_s_FuncInfo@@H@Z 00000001800086a4 f   libvcruntime:frame.obj
 0001:00007838       ?GetHandlerSearchState@__FrameHandler3@@SAHPEA_KPEAU_xDISPATCHER_CONTEXT@@PEBU_s_FuncInfo@@@Z 0000000180008838 f i libvcruntime:frame.obj
 0001:00007a3c       ?_CallMemberFunction1@@YAXQEAX00@Z 0000000180008a3c f i libvcruntime:frame.obj
 0001:00007a48       ?_CallMemberFunction2@@YAXQEAX00H@Z 0000000180008a48 f i libvcruntime:frame.obj
 0001:00007a58       __vcrt_initialize_locks    0000000180008a58 f   libvcruntime:locks.obj
 0001:00007aa0       __vcrt_uninitialize_locks  0000000180008aa0 f   libvcruntime:locks.obj
 0001:00007cb0       __vcrt_FlsAlloc            0000000180008cb0 f   libvcruntime:winapi_downlevel.obj
 0001:00007cf8       __vcrt_FlsFree             0000000180008cf8 f   libvcruntime:winapi_downlevel.obj
 0001:00007d40       __vcrt_FlsGetValue         0000000180008d40 f   libvcruntime:winapi_downlevel.obj
 0001:00007d88       __vcrt_FlsSetValue         0000000180008d88 f   libvcruntime:winapi_downlevel.obj
 0001:00007ddc       __vcrt_InitializeCriticalSectionEx 0000000180008ddc f   libvcruntime:winapi_downlevel.obj
 0001:00007e40       __vcrt_initialize_winapi_thunks 0000000180008e40 f   libvcruntime:winapi_downlevel.obj
 0001:00007e70       __vcrt_uninitialize_winapi_thunks 0000000180008e70 f   libvcruntime:winapi_downlevel.obj
 0001:00007eb0       __vcrt_initialize_pure_virtual_call_handler 0000000180008eb0 f   libvcruntime:purevirt_data.obj
 0001:00007ed0       _NLG_Notify                0000000180008ed0 f   libvcruntime:notify.obj
 0001:00007ef0       __NLG_Dispatch2            0000000180008ef0 f   libvcruntime:notify.obj
 0001:00007f00       __NLG_Return2              0000000180008f00 f   libvcruntime:notify.obj
 0001:00007f04       __except_validate_context_record 0000000180008f04 f   libvcruntime:jbcxrval.obj
 0001:00007f50       _CallSettingFrame          0000000180008f50 f   libvcruntime:handlers.obj
 0001:00007fa0       _CallSettingFrameEncoded   0000000180008fa0 f   libvcruntime:handlers.obj
 0001:00008000       memcpy_repmovs             0000000180009000 f   libvcruntime:memcpy.obj
 0001:00008020       memmove                    0000000180009020 f   libvcruntime:memcpy.obj
 0001:00008020       memcpy                     0000000180009020 f   libvcruntime:memcpy.obj
 0001:00008458       calloc                     0000000180009458 f   libucrt:calloc.obj
 0001:00008460       realloc                    0000000180009460 f   libucrt:realloc.obj
 0001:00008468       free                       0000000180009468 f   libucrt:free.obj
 0001:00008b94       ??$ftprintf@PEAU_iobuf@@PEB_WAEBQEB_WAEBQEB_WAEBI@?$__crt_char_traits@_W@@SAH$$QEAPEAU_iobuf@@$$QEAPEB_WAEBQEB_W2AEBI@Z 0000000180009b94 f i libucrt:assert.obj
 0001:00008bbc       _wassert                   0000000180009bbc f   libucrt:assert.obj
 0001:00008c30       fwprintf                   0000000180009c30 f i libucrt:assert.obj
 0001:00008c74       swprintf                   0000000180009c74 f i libucrt:assert.obj
 0001:00008cc8       __acrt_call_reportfault    0000000180009cc8 f   libucrt:invalid_parameter.obj
 0001:00008e24       __acrt_initialize_invalid_parameter_handler 0000000180009e24 f   libucrt:invalid_parameter.obj
 0001:00008e2c       _invalid_parameter         0000000180009e2c f   libucrt:invalid_parameter.obj
 0001:00008edc       _invalid_parameter_noinfo  0000000180009edc f   libucrt:invalid_parameter.obj
 0001:00008efc       _invalid_parameter_noinfo_noreturn 0000000180009efc f   libucrt:invalid_parameter.obj
 0001:00008f2c       _invoke_watson             0000000180009f2c f   libucrt:invalid_parameter.obj
 0001:00008f74       ??0_LocaleUpdate@@QEAA@QEAU__crt_locale_pointers@@@Z 0000000180009f74 f i libucrt:stricmp.obj
 0001:00009010       __ascii_stricmp            000000018000a010 f   libucrt:stricmp.obj
 0001:00009050       _stricmp                   000000018000a050 f   libucrt:stricmp.obj
 0001:00009098       _stricmp_l                 000000018000a098 f   libucrt:stricmp.obj
 0001:0000914c       malloc                     000000018000a14c f   libucrt:malloc.obj
 0001:000093a8       ??$ensure_buffer_is_big_enough@D@formatting_buffer@__crt_stdio_output@@QEAA_N_K@Z 000000018000a3a8 f i libucrt:output.obj
 0001:00009450       ??$ensure_buffer_is_big_enough@_W@formatting_buffer@__crt_stdio_output@@QEAA_N_K@Z 000000018000a450 f i libucrt:output.obj
 0001:000094fc       ??$is_wide_character_specifier@_W@__crt_stdio_output@@YA_N_K_WW4length_modifier@0@@Z 000000018000a4fc f i libucrt:output.obj
 0001:0000953c       ??$type_case_integer_parse_into_buffer@I@?$output_processor@DV?$stream_output_adapter@D@__crt_stdio_output@@V?$standard_base@DV?$stream_output_adapter@D@__crt_stdio_output@@@2@@__crt_stdio_output@@AEAAXII_N@Z 000000018000a53c f i libucrt:output.obj
 0001:000095cc       ??$type_case_integer_parse_into_buffer@I@?$output_processor@_WV?$string_output_adapter@_W@__crt_stdio_output@@V?$standard_base@_WV?$string_output_adapter@_W@__crt_stdio_output@@@2@@__crt_stdio_output@@AEAAXII_N@Z 000000018000a5cc f i libucrt:output.obj
 0001:000095cc       ??$type_case_integer_parse_into_buffer@I@?$output_processor@_WV?$stream_output_adapter@_W@__crt_stdio_output@@V?$standard_base@_WV?$stream_output_adapter@_W@__crt_stdio_output@@@2@@__crt_stdio_output@@AEAAXII_N@Z 000000018000a5cc f i libucrt:output.obj
 0001:00009670       ??$type_case_integer_parse_into_buffer@_K@?$output_processor@DV?$stream_output_adapter@D@__crt_stdio_output@@V?$standard_base@DV?$stream_output_adapter@D@__crt_stdio_output@@@2@@__crt_stdio_output@@AEAAX_KI_N@Z 000000018000a670 f i libucrt:output.obj
 0001:00009704       ??$type_case_integer_parse_into_buffer@_K@?$output_processor@_WV?$string_output_adapter@_W@__crt_stdio_output@@V?$standard_base@_WV?$string_output_adapter@_W@__crt_stdio_output@@@2@@__crt_stdio_output@@AEAAX_KI_N@Z 000000018000a704 f i libucrt:output.obj
 0001:00009704       ??$type_case_integer_parse_into_buffer@_K@?$output_processor@_WV?$stream_output_adapter@_W@__crt_stdio_output@@V?$standard_base@_WV?$stream_output_adapter@_W@__crt_stdio_output@@@2@@__crt_stdio_output@@AEAAX_KI_N@Z 000000018000a704 f i libucrt:output.obj
 0001:000097a8       ??$write_multiple_characters@V?$stream_output_adapter@D@__crt_stdio_output@@D@__crt_stdio_output@@YAXAEBV?$stream_output_adapter@D@0@DHQEAH@Z 000000018000a7a8 f i libucrt:output.obj
 0001:00009834       ??$write_multiple_characters@V?$stream_output_adapter@_W@__crt_stdio_output@@D@__crt_stdio_output@@YAXAEBV?$stream_output_adapter@_W@0@DHQEAH@Z 000000018000a834 f i libucrt:output.obj
 0001:000098c8       ??$write_multiple_characters@V?$string_output_adapter@_W@__crt_stdio_output@@D@__crt_stdio_output@@YAXAEBV?$string_output_adapter@_W@0@DHQEAH@Z 000000018000a8c8 f i libucrt:output.obj
 0001:00009ba8       ?crop_zeroes@__crt_stdio_output@@YAXPEADQEAU__crt_locale_pointers@@@Z 000000018000aba8 f i libucrt:output.obj
 0001:00009c14       ?force_decimal_point@__crt_stdio_output@@YAXPEADQEAU__crt_locale_pointers@@@Z 000000018000ac14 f i libucrt:output.obj
 0001:00009c84       ?parse_int_from_format_string@?$output_processor@DV?$stream_output_adapter@D@__crt_stdio_output@@V?$standard_base@DV?$stream_output_adapter@D@__crt_stdio_output@@@2@@__crt_stdio_output@@AEAA_NQEAH@Z 000000018000ac84 f i libucrt:output.obj
 0001:00009d28       ?parse_int_from_format_string@?$output_processor@_WV?$stream_output_adapter@_W@__crt_stdio_output@@V?$standard_base@_WV?$stream_output_adapter@_W@__crt_stdio_output@@@2@@__crt_stdio_output@@AEAA_NQEAH@Z 000000018000ad28 f i libucrt:output.obj
 0001:00009d28       ?parse_int_from_format_string@?$output_processor@_WV?$string_output_adapter@_W@__crt_stdio_output@@V?$standard_base@_WV?$string_output_adapter@_W@__crt_stdio_output@@@2@@__crt_stdio_output@@AEAA_NQEAH@Z 000000018000ad28 f i libucrt:output.obj
 0001:00009dcc       ?process@?$output_processor@DV?$stream_output_adapter@D@__crt_stdio_output@@V?$standard_base@DV?$stream_output_adapter@D@__crt_stdio_output@@@2@@__crt_stdio_output@@QEAAHXZ 000000018000adcc f i libucrt:output.obj
 0001:00009fe4       ?process@?$output_processor@_WV?$stream_output_adapter@_W@__crt_stdio_output@@V?$standard_base@_WV?$stream_output_adapter@_W@__crt_stdio_output@@@2@@__crt_stdio_output@@QEAAHXZ 000000018000afe4 f i libucrt:output.obj
 0001:0000a250       ?process@?$output_processor@_WV?$string_output_adapter@_W@__crt_stdio_output@@V?$standard_base@_WV?$string_output_adapter@_W@__crt_stdio_output@@@2@@__crt_stdio_output@@QEAAHXZ 000000018000b250 f i libucrt:output.obj
 0001:0000a4cc       ?state_case_normal@?$output_processor@DV?$stream_output_adapter@D@__crt_stdio_output@@V?$standard_base@DV?$stream_output_adapter@D@__crt_stdio_output@@@2@@__crt_stdio_output@@AEAA_NXZ 000000018000b4cc f i libucrt:output.obj
 0001:0000a53c       ?state_case_normal_tchar@?$output_processor@DV?$stream_output_adapter@D@__crt_stdio_output@@V?$standard_base@DV?$stream_output_adapter@D@__crt_stdio_output@@@2@@__crt_stdio_output@@AEAA_ND@Z 000000018000b53c f i libucrt:output.obj
 0001:0000a5e0       ?state_case_size@?$output_processor@DV?$stream_output_adapter@D@__crt_stdio_output@@V?$standard_base@DV?$stream_output_adapter@D@__crt_stdio_output@@@2@@__crt_stdio_output@@AEAA_NXZ 000000018000b5e0 f i libucrt:output.obj
 0001:0000a754       ?state_case_size@?$output_processor@_WV?$stream_output_adapter@_W@__crt_stdio_output@@V?$standard_base@_WV?$stream_output_adapter@_W@__crt_stdio_output@@@2@@__crt_stdio_output@@AEAA_NXZ 000000018000b754 f i libucrt:output.obj
 0001:0000a8ec       ?state_case_size@?$output_processor@_WV?$string_output_adapter@_W@__crt_stdio_output@@V?$standard_base@_WV?$string_output_adapter@_W@__crt_stdio_output@@@2@@__crt_stdio_output@@AEAA_NXZ 000000018000b8ec f i libucrt:output.obj
 0001:0000aa84       ?state_case_type@?$output_processor@DV?$stream_output_adapter@D@__crt_stdio_output@@V?$standard_base@DV?$stream_output_adapter@D@__crt_stdio_output@@@2@@__crt_stdio_output@@AEAA_NXZ 000000018000ba84 f i libucrt:output.obj
 0001:0000ad08       ?state_case_type@?$output_processor@_WV?$stream_output_adapter@_W@__crt_stdio_output@@V?$standard_base@_WV?$stream_output_adapter@_W@__crt_stdio_output@@@2@@__crt_stdio_output@@AEAA_NXZ 000000018000bd08 f i libucrt:output.obj
 0001:0000afe8       ?state_case_type@?$output_processor@_WV?$string_output_adapter@_W@__crt_stdio_output@@V?$standard_base@_WV?$string_output_adapter@_W@__crt_stdio_output@@@2@@__crt_stdio_output@@AEAA_NXZ 000000018000bfe8 f i libucrt:output.obj
 0001:0000b2b4       ?type_case_Z@?$output_processor@DV?$stream_output_adapter@D@__crt_stdio_output@@V?$standard_base@DV?$stream_output_adapter@D@__crt_stdio_output@@@2@@__crt_stdio_output@@AEAA_NXZ 000000018000c2b4 f i libucrt:output.obj
 0001:0000b32c       ?type_case_Z@?$output_processor@_WV?$string_output_adapter@_W@__crt_stdio_output@@V?$standard_base@_WV?$string_output_adapter@_W@__crt_stdio_output@@@2@@__crt_stdio_output@@AEAA_NXZ 000000018000c32c f i libucrt:output.obj
 0001:0000b32c       ?type_case_Z@?$output_processor@_WV?$stream_output_adapter@_W@__crt_stdio_output@@V?$standard_base@_WV?$stream_output_adapter@_W@__crt_stdio_output@@@2@@__crt_stdio_output@@AEAA_NXZ 000000018000c32c f i libucrt:output.obj
 0001:0000b3a8       ?type_case_a@?$output_processor@DV?$stream_output_adapter@D@__crt_stdio_output@@V?$standard_base@DV?$stream_output_adapter@D@__crt_stdio_output@@@2@@__crt_stdio_output@@AEAA_NXZ 000000018000c3a8 f i libucrt:output.obj
 0001:0000b564       ?type_case_a@?$output_processor@_WV?$string_output_adapter@_W@__crt_stdio_output@@V?$standard_base@_WV?$string_output_adapter@_W@__crt_stdio_output@@@2@@__crt_stdio_output@@AEAA_NXZ 000000018000c564 f i libucrt:output.obj
 0001:0000b564       ?type_case_a@?$output_processor@_WV?$stream_output_adapter@_W@__crt_stdio_output@@V?$standard_base@_WV?$stream_output_adapter@_W@__crt_stdio_output@@@2@@__crt_stdio_output@@AEAA_NXZ 000000018000c564 f i libucrt:output.obj
 0001:0000b744       ?type_case_c_tchar@?$output_processor@DV?$stream_output_adapter@D@__crt_stdio_output@@V?$standard_base@DV?$stream_output_adapter@D@__crt_stdio_output@@@2@@__crt_stdio_output@@AEAA_ND@Z 000000018000c744 f i libucrt:output.obj
 0001:0000b800       ?type_case_c_tchar@?$output_processor@_WV?$string_output_adapter@_W@__crt_stdio_output@@V?$standard_base@_WV?$string_output_adapter@_W@__crt_stdio_output@@@2@@__crt_stdio_output@@AEAA_N_W@Z 000000018000c800 f i libucrt:output.obj
 0001:0000b800       ?type_case_c_tchar@?$output_processor@_WV?$stream_output_adapter@_W@__crt_stdio_output@@V?$standard_base@_WV?$stream_output_adapter@_W@__crt_stdio_output@@@2@@__crt_stdio_output@@AEAA_N_W@Z 000000018000c800 f i libucrt:output.obj
 0001:0000b8a8       ?type_case_integer@?$output_processor@DV?$stream_output_adapter@D@__crt_stdio_output@@V?$standard_base@DV?$stream_output_adapter@D@__crt_stdio_output@@@2@@__crt_stdio_output@@AEAA_NI_N@Z 000000018000c8a8 f i libucrt:output.obj
 0001:0000ba70       ?type_case_integer@?$output_processor@_WV?$string_output_adapter@_W@__crt_stdio_output@@V?$standard_base@_WV?$string_output_adapter@_W@__crt_stdio_output@@@2@@__crt_stdio_output@@AEAA_NI_N@Z 000000018000ca70 f i libucrt:output.obj
 0001:0000ba70       ?type_case_integer@?$output_processor@_WV?$stream_output_adapter@_W@__crt_stdio_output@@V?$standard_base@_WV?$stream_output_adapter@_W@__crt_stdio_output@@@2@@__crt_stdio_output@@AEAA_NI_N@Z 000000018000ca70 f i libucrt:output.obj
 0001:0000bc3c       ?type_case_n@?$output_processor@_WV?$stream_output_adapter@_W@__crt_stdio_output@@V?$standard_base@_WV?$stream_output_adapter@_W@__crt_stdio_output@@@2@@__crt_stdio_output@@AEAA_NXZ 000000018000cc3c f i libucrt:output.obj
 0001:0000bc3c       ?type_case_n@?$output_processor@_WV?$string_output_adapter@_W@__crt_stdio_output@@V?$standard_base@_WV?$string_output_adapter@_W@__crt_stdio_output@@@2@@__crt_stdio_output@@AEAA_NXZ 000000018000cc3c f i libucrt:output.obj
 0001:0000bc3c       ?type_case_n@?$output_processor@DV?$stream_output_adapter@D@__crt_stdio_output@@V?$standard_base@DV?$stream_output_adapter@D@__crt_stdio_output@@@2@@__crt_stdio_output@@AEAA_NXZ 000000018000cc3c f i libucrt:output.obj
 0001:0000bd18       ?type_case_s@?$output_processor@DV?$stream_output_adapter@D@__crt_stdio_output@@V?$standard_base@DV?$stream_output_adapter@D@__crt_stdio_output@@@2@@__crt_stdio_output@@AEAA_NXZ 000000018000cd18 f i libucrt:output.obj
 0001:0000bdb0       ?type_case_s@?$output_processor@_WV?$string_output_adapter@_W@__crt_stdio_output@@V?$standard_base@_WV?$string_output_adapter@_W@__crt_stdio_output@@@2@@__crt_stdio_output@@AEAA_NXZ 000000018000cdb0 f i libucrt:output.obj
 0001:0000bdb0       ?type_case_s@?$output_processor@_WV?$stream_output_adapter@_W@__crt_stdio_output@@V?$standard_base@_WV?$stream_output_adapter@_W@__crt_stdio_output@@@2@@__crt_stdio_output@@AEAA_NXZ 000000018000cdb0 f i libucrt:output.obj
 0001:0000be78       ?validate_stream_is_ansi_if_required@?$__acrt_stdio_char_traits@D@@SA_NQEAU_iobuf@@@Z 000000018000ce78 f i libucrt:output.obj
 0001:0000bf14       ?write_stored_string_tchar@?$output_processor@DV?$stream_output_adapter@D@__crt_stdio_output@@V?$standard_base@DV?$stream_output_adapter@D@__crt_stdio_output@@@2@@__crt_stdio_output@@AEAA_ND@Z 000000018000cf14 f i libucrt:output.obj
 0001:0000c038       ?write_stored_string_tchar@?$output_processor@_WV?$stream_output_adapter@_W@__crt_stdio_output@@V?$standard_base@_WV?$stream_output_adapter@_W@__crt_stdio_output@@@2@@__crt_stdio_output@@AEAA_N_W@Z 000000018000d038 f i libucrt:output.obj
 0001:0000c140       ?write_stored_string_tchar@?$output_processor@_WV?$string_output_adapter@_W@__crt_stdio_output@@V?$standard_base@_WV?$string_output_adapter@_W@__crt_stdio_output@@@2@@__crt_stdio_output@@AEAA_N_W@Z 000000018000d140 f i libucrt:output.obj
 0001:0000c22c       ?write_string@?$string_output_adapter@_W@__crt_stdio_output@@QEBAXQEB_WHQEAHAEAV__crt_deferred_errno_cache@@@Z 000000018000d22c f i libucrt:output.obj
 0001:0000c2d4       ?write_string_impl@?$output_adapter_common@DV?$stream_output_adapter@D@__crt_stdio_output@@@__crt_stdio_output@@IEBAXQEBDHQEAHAEAV__crt_deferred_errno_cache@@@Z 000000018000d2d4 f i libucrt:output.obj
 0001:0000c3cc       ?write_string_impl@?$output_adapter_common@_WV?$stream_output_adapter@_W@__crt_stdio_output@@@__crt_stdio_output@@IEBAXQEB_WHQEAHAEAV__crt_deferred_errno_cache@@@Z 000000018000d3cc f i libucrt:output.obj
 0001:0000c4d0       __stdio_common_vfprintf    000000018000d4d0 f   libucrt:output.obj
 0001:0000c55c       __stdio_common_vfwprintf   000000018000d55c f   libucrt:output.obj
 0001:0000c5e8       __stdio_common_vswprintf   000000018000d5e8 f   libucrt:output.obj
 0001:0000c694       _fwrite_nolock             000000018000d694 f   libucrt:fwrite.obj
 0001:0000c840       fwrite                     000000018000d840 f   libucrt:fwrite.obj
 0001:0000c8c4       __acrt_initialize_new_handler 000000018000d8c4 f   libucrt:new_handler.obj
 0001:0000c8cc       _callnewh                  000000018000d8cc f   libucrt:new_handler.obj
 0001:0000c8fc       _query_new_handler         000000018000d8fc f   libucrt:new_handler.obj
 0001:0000c930       _seh_filter_dll            000000018000d930 f   libucrt:exception_filter.obj
 0001:0000c944       _seh_filter_exe            000000018000d944 f   libucrt:exception_filter.obj
 0001:0000cd34       __acrt_initialize_thread_local_exit_callback 000000018000dd34 f   libucrt:exit.obj
 0001:0000cd3c       _cexit                     000000018000dd3c f   libucrt:exit.obj
 0001:0000cd4c       _exit                      000000018000dd4c f   libucrt:exit.obj
 0001:0000cd58       _is_c_termination_complete 000000018000dd58 f   libucrt:exit.obj
 0001:0000cf24       __acrt_allocate_buffer_for_argv 000000018000df24 f   libucrt:argv_parsing.obj
 0001:0000cf84       _configure_narrow_argv     000000018000df84 f   libucrt:argv_parsing.obj
 0001:0000d2fc       __dcrt_uninitialize_environments_nolock 000000018000e2fc f   libucrt:environment_initialization.obj
 0001:0000d334       _initialize_narrow_environment 000000018000e334 f   libucrt:environment_initialization.obj
 0001:0000d67c       _crt_atexit                000000018000e67c f   libucrt:onexit.obj
 0001:0000d68c       _execute_onexit_table      000000018000e68c f   libucrt:onexit.obj
 0001:0000d6c8       _initialize_onexit_table   000000018000e6c8 f   libucrt:onexit.obj
 0001:0000d6f0       _register_onexit_function  000000018000e6f0 f   libucrt:onexit.obj
 0001:0000d770       __acrt_uninitialize_command_line 000000018000e770 f   libucrt:argv_data.obj
 0001:0000d868       __acrt_initialize          000000018000e868 f   libucrt:initialization.obj
 0001:0000d87c       __acrt_thread_attach       000000018000e87c f   libucrt:initialization.obj
 0001:0000d890       __acrt_thread_detach       000000018000e890 f   libucrt:initialization.obj
 0001:0000d8a0       __acrt_uninitialize        000000018000e8a0 f   libucrt:initialization.obj
 0001:0000d8d8       __acrt_uninitialize_critical 000000018000e8d8 f   libucrt:initialization.obj
 0001:0000d8e8       _initterm                  000000018000e8e8 f   libucrt:initterm.obj
 0001:0000d94c       _initterm_e                000000018000e94c f   libucrt:initterm.obj
 0001:0000d98c       terminate                  000000018000e98c f   libucrt:terminate.obj
 0001:0000d9ac       strcpy_s                   000000018000e9ac f   libucrt:strcpy_s.obj
 0001:0000da0c       abort                      000000018000ea0c f   libucrt:abort.obj
 0001:0000da64       wcsncmp                    000000018000ea64 f   libucrt:wcsncmp.obj
 0001:0000da90       ??$parse_integer@KV?$c_string_character_source@D@__crt_strtox@@@__crt_strtox@@YAKQEAU__crt_locale_pointers@@V?$c_string_character_source@D@0@H_N@Z 000000018000ea90 f i libucrt:atox.obj
 0001:0000ddcc       ??$parse_integer@KV?$c_string_character_source@_W@__crt_strtox@@@__crt_strtox@@YAKQEAU__crt_locale_pointers@@V?$c_string_character_source@_W@0@H_N@Z 000000018000edcc f i libucrt:atox.obj
 0001:0000e490       strncmp                    000000018000f490 f   libucrt:strncmp.obj
 0001:0000e510       _calloc_base               000000018000f510 f   libucrt:calloc_base.obj
 0001:0000e588       _realloc_base              000000018000f588 f   libucrt:realloc_base.obj
 0001:0000e604       _free_base                 000000018000f604 f   libucrt:free_base.obj
 0001:0000e644       _query_app_type            000000018000f644 f   libucrt:report_runtime_error.obj
 0001:0000e64c       __acrt_errno_from_os_error 000000018000f64c f   libucrt:errno.obj
 0001:0000e694       __acrt_errno_map_os_error  000000018000f694 f   libucrt:errno.obj
 0001:0000e6e4       __doserrno                 000000018000f6e4 f   libucrt:errno.obj
 0001:0000e704       _errno                     000000018000f704 f   libucrt:errno.obj
 0001:0000e864       _itow_s                    000000018000f864 f   libucrt:xtoa.obj
 0001:0000e884       _set_error_mode            000000018000f884 f   libucrt:set_error_mode.obj
 0001:0000e8c4       wcscat_s                   000000018000f8c4 f   libucrt:wcscat_s.obj
 0001:0000e944       wcscpy_s                   000000018000f944 f   libucrt:wcscpy_s.obj
 0001:0000e9ac       wcsncat_s                  000000018000f9ac f   libucrt:wcsncat_s.obj
 0001:0000eaac       ??$__acrt_wcs_to_mbs_cp@U__crt_win32_buffer_no_resizing@@@@YAHQEB_WAEAV?$__crt_win32_buffer@DU__crt_win32_buffer_no_resizing@@@@I@Z 000000018000faac f i libucrt:getmodulefilenamea.obj
 0001:0000ebc0       __acrt_GetModuleFileNameA  000000018000fbc0 f   libucrt:getmodulefilenamea.obj
 0001:0000ece0       __acrt_show_wide_message_box 000000018000fce0 f   libucrt:crtmbox.obj
 0001:0000ed84       __acrt_initialize_stdio    000000018000fd84 f   libucrt:_file.obj
 0001:0000eea4       __acrt_iob_func            000000018000fea4 f   libucrt:_file.obj
 0001:0000eeb8       __acrt_uninitialize_stdio  000000018000feb8 f   libucrt:_file.obj
 0001:0000ef14       _lock_file                 000000018000ff14 f   libucrt:_file.obj
 0001:0000ef20       _unlock_file               000000018000ff20 f   libucrt:_file.obj
 0001:0000f148       __acrt_stdio_flush_nolock  0000000180010148 f   libucrt:fflush.obj
 0001:0000f1c4       _fflush_nolock             00000001800101c4 f   libucrt:fflush.obj
 0001:0000f210       _flushall                  0000000180010210 f   libucrt:fflush.obj
 0001:0000f218       fflush                     0000000180010218 f   libucrt:fflush.obj
 0001:0000f3a0       setvbuf                    00000001800103a0 f   libucrt:setvbuf.obj
 0001:0000f484       __acrt_get_sigabrt_handler 0000000180010484 f   libucrt:signal.obj
 0001:0000f4b4       __acrt_initialize_signal_handlers 00000001800104b4 f   libucrt:signal.obj
 0001:0000f4d4       raise                      00000001800104d4 f   libucrt:signal.obj
 0001:0000fab8       __acrt_freeptd             0000000180010ab8 f   libucrt:per_thread_data.obj
 0001:0000fafc       __acrt_getptd              0000000180010afc f   libucrt:per_thread_data.obj
 0001:0000fbd0       __acrt_getptd_head         0000000180010bd0 f   libucrt:per_thread_data.obj
 0001:0000fc78       __acrt_getptd_noexit       0000000180010c78 f   libucrt:per_thread_data.obj
 0001:0000fd44       __acrt_initialize_ptd      0000000180010d44 f   libucrt:per_thread_data.obj
 0001:0000fd80       __acrt_uninitialize_ptd    0000000180010d80 f   libucrt:per_thread_data.obj
 0001:0000fe04       _tolower_l                 0000000180010e04 f   libucrt:tolower_toupper.obj
 0001:0000ff44       tolower                    0000000180010f44 f   libucrt:tolower_toupper.obj
 0001:0000ff70       __acrt_update_locale_info  0000000180010f70 f   libucrt:locale_update.obj
 0001:0000ffa4       __acrt_update_multibyte_info 0000000180010fa4 f   libucrt:locale_update.obj
 0001:00010048       __acrt_set_locale_changed  0000000180011048 f   libucrt:wsetlocale.obj
 0001:00010054       __acrt_uninitialize_locale 0000000180011054 f   libucrt:wsetlocale.obj
 0001:00010084       _malloc_base               0000000180011084 f   libucrt:malloc_base.obj
 0001:000100e4       isdigit                    00000001800110e4 f i libucrt:_ctype.obj
 0001:00010178       strtol                     0000000180011178 f   libucrt:strtox.obj
 0001:000101a4       wcstol                     00000001800111a4 f   libucrt:strtox.obj
 0001:000101d0       _mbtowc_l                  00000001800111d0 f   libucrt:mbtowc.obj
 0001:0001034c       mbtowc                     000000018001134c f   libucrt:mbtowc.obj
 0001:00010354       _wctomb_s_l                0000000180011354 f   libucrt:wctomb.obj
 0001:000104f4       wctomb_s                   00000001800114f4 f   libucrt:wctomb.obj
 0001:00010508       strnlen                    0000000180011508 f   libucrt:strnlen.obj
 0001:00010658       wcsnlen                    0000000180011658 f   libucrt:strnlen.obj
 0001:00011204       __acrt_fp_format           0000000180012204 f   libucrt:cvt.obj
 0001:0001148c       _fputwc_nolock             000000018001248c f   libucrt:fputwc.obj
 0001:00011608       _fileno                    0000000180012608 f   libucrt:fileno.obj
 0001:00011630       _fputc_nolock              0000000180012630 f   libucrt:fputc.obj
 0001:00011648       _get_printf_count_output   0000000180012648 f   libucrt:printf_count_output.obj
 0001:00011660       __acrt_stdio_begin_temporary_buffering_nolock 0000000180012660 f   libucrt:_sftbuf.obj
 0001:00011730       __acrt_stdio_end_temporary_buffering_nolock 0000000180012730 f   libucrt:_sftbuf.obj
 0001:00011968       __acrt_initialize_lowio    0000000180012968 f   libucrt:ioinit.obj
 0001:000119a4       __acrt_uninitialize_lowio  00000001800129a4 f   libucrt:ioinit.obj
 0001:00012250       _write                     0000000180013250 f   libucrt:write.obj
 0001:0001233c       _write_nolock              000000018001333c f   libucrt:write.obj
 0001:0001285c       __acrt_stdio_flush_and_write_narrow_nolock 000000018001385c f   libucrt:_flsbuf.obj
 0001:00012948       __acrt_stdio_flush_and_write_wide_nolock 0000000180013948 f   libucrt:_flsbuf.obj
 0001:00012a34       __acrt_initialize_locks    0000000180013a34 f   libucrt:locks.obj
 0001:00012a7c       __acrt_lock                0000000180013a7c f   libucrt:locks.obj
 0001:00012a98       __acrt_uninitialize_locks  0000000180013a98 f   libucrt:locks.obj
 0001:00012ad0       __acrt_unlock              0000000180013ad0 f   libucrt:locks.obj
 0001:00012aec       __acrt_get_developer_information_policy 0000000180013aec f   libucrt:win_policies.obj
 0001:00012b40       __acrt_get_process_end_policy 0000000180013b40 f   libucrt:win_policies.obj
 0001:00012b7c       __acrt_get_windowing_model_policy 0000000180013b7c f   libucrt:win_policies.obj
 0001:00012bfc       ??$__acrt_mbs_to_wcs_cp@U__crt_win32_buffer_internal_dynamic_resizing@@@@YAHQEBDAEAV?$__crt_win32_buffer@_WU__crt_win32_buffer_internal_dynamic_resizing@@@@I@Z 0000000180013bfc f i libucrt:argv_wildcards.obj
 0001:00012d74       ??$__acrt_wcs_to_mbs_cp@U__crt_win32_buffer_internal_dynamic_resizing@@@@YAHQEB_WAEAV?$__crt_win32_buffer@DU__crt_win32_buffer_internal_dynamic_resizing@@@@I@Z 0000000180013d74 f i libucrt:argv_wildcards.obj
 0001:000135a4       __acrt_expand_narrow_argv_wildcards 00000001800145a4 f   libucrt:argv_wildcards.obj
 0001:00013cd8       __acrt_initialize_multibyte 0000000180014cd8 f   libucrt:mbctype.obj
 0001:00013d38       __acrt_update_thread_multibyte_data 0000000180014d38 f   libucrt:mbctype.obj
 0001:00013d54       _setmbcp_nolock            0000000180014d54 f   libucrt:mbctype.obj
 0001:00014088       _ismbblead                 0000000180015088 f   libucrt:ismbbyte.obj
 0001:0001409c       __acrt_initialize_command_line 000000018001509c f   libucrt:argv_data.obj
 0001:000140c4       __acrt_MultiByteToWideChar 00000001800150c4 f   libucrt:multibytetowidechar.obj
 0001:00014120       __acrt_WideCharToMultiByte 0000000180015120 f   libucrt:widechartomultibyte.obj
 0001:000141b8       __dcrt_get_narrow_environment_from_os 00000001800151b8 f   libucrt:get_environment_from_os.obj
 0001:000142bc       _recalloc_base             00000001800152bc f   libucrt:recalloc.obj
 0001:0001452c       __acrt_AppPolicyGetProcessTerminationMethodInternal 000000018001552c f   libucrt:winapi_thunks.obj
 0001:0001457c       __acrt_AppPolicyGetShowDeveloperDiagnosticInternal 000000018001557c f   libucrt:winapi_thunks.obj
 0001:000145cc       __acrt_AppPolicyGetWindowingModelInternal 00000001800155cc f   libucrt:winapi_thunks.obj
 0001:0001461c       __acrt_AreFileApisANSI     000000018001561c f   libucrt:winapi_thunks.obj
 0001:00014658       __acrt_FlsAlloc            0000000180015658 f   libucrt:winapi_thunks.obj
 0001:000146a0       __acrt_FlsFree             00000001800156a0 f   libucrt:winapi_thunks.obj
 0001:000146e8       __acrt_FlsGetValue         00000001800156e8 f   libucrt:winapi_thunks.obj
 0001:00014730       __acrt_FlsSetValue         0000000180015730 f   libucrt:winapi_thunks.obj
 0001:00014784       __acrt_InitializeCriticalSectionEx 0000000180015784 f   libucrt:winapi_thunks.obj
 0001:000147e8       __acrt_LCMapStringEx       00000001800157e8 f   libucrt:winapi_thunks.obj
 0001:000148c4       __acrt_LocaleNameToLCID    00000001800158c4 f   libucrt:winapi_thunks.obj
 0001:00014914       __acrt_MessageBoxW         0000000180015914 f   libucrt:winapi_thunks.obj
 0001:00014988       __acrt_can_show_message_box 0000000180015988 f   libucrt:winapi_thunks.obj
 0001:000149f8       __acrt_get_parent_window   00000001800159f8 f   libucrt:winapi_thunks.obj
 0001:00014a70       __acrt_initialize_winapi_thunks 0000000180015a70 f   libucrt:winapi_thunks.obj
 0001:00014aa4       __acrt_is_interactive      0000000180015aa4 f   libucrt:winapi_thunks.obj
 0001:00014b6c       __acrt_uninitialize_winapi_thunks 0000000180015b6c f   libucrt:winapi_thunks.obj
 0001:00014bb0       __acrt_initialize_heap     0000000180015bb0 f   libucrt:heap_handle.obj
 0001:00014bcc       __acrt_uninitialize_heap   0000000180015bcc f   libucrt:heap_handle.obj
 0001:00014bd8       __acrt_execute_initializers 0000000180015bd8 f   libucrt:shared_initialization.obj
 0001:00014c58       __acrt_execute_uninitializers 0000000180015c58 f   libucrt:shared_initialization.obj
 0001:00014c94       __acrt_has_user_matherr    0000000180015c94 f   libucrt:matherr.obj
 0001:00014cb4       __acrt_initialize_user_matherr 0000000180015cb4 f   libucrt:matherr.obj
 0001:00014cbc       __acrt_invoke_user_matherr 0000000180015cbc f   libucrt:matherr.obj
 0001:00014cec       __pctype_func              0000000180015cec f   libucrt:ctype.obj
 0001:00014d1c       iswctype                   0000000180015d1c f   libucrt:iswctype.obj
 0001:00014d8c       _isctype_l                 0000000180015d8c f   libucrt:isctype.obj
 0001:00014e9c       _query_new_mode            0000000180015e9c f   libucrt:new_mode.obj
 0001:00014ea4       _fcloseall                 0000000180015ea4 f   libucrt:closeall.obj
 0001:00014f58       __acrt_stdio_free_buffer_nolock 0000000180015f58 f   libucrt:_freebuf.obj
 0001:00015024       _commit                    0000000180016024 f   libucrt:commit.obj
 0001:000150b8       __acrt_add_locale_ref      00000001800160b8 f   libucrt:locale_refcounting.obj
 0001:00015144       __acrt_free_locale         0000000180016144 f   libucrt:locale_refcounting.obj
 0001:000152bc       __acrt_locale_add_lc_time_reference 00000001800162bc f   libucrt:locale_refcounting.obj
 0001:000152e4       __acrt_locale_free_lc_time_if_unreferenced 00000001800162e4 f   libucrt:locale_refcounting.obj
 0001:0001531c       __acrt_locale_release_lc_time_reference 000000018001631c f   libucrt:locale_refcounting.obj
 0001:00015344       __acrt_release_locale_ref  0000000180016344 f   libucrt:locale_refcounting.obj
 0001:000153ec       __acrt_update_thread_locale_data 00000001800163ec f   libucrt:locale_refcounting.obj
 0001:0001545c       _updatetlocinfoEx_nolock   000000018001645c f   libucrt:locale_refcounting.obj
 0001:000154c4       _isleadbyte_l              00000001800164c4 f i libucrt:_wctype.obj
 0001:00015828       __acrt_LCMapStringA        0000000180016828 f   libucrt:lcmapstringa.obj
 0001:000158c0       __acrt_locale_free_monetary 00000001800168c0 f   libucrt:initmon.obj
 0001:000159cc       __acrt_locale_free_numeric 00000001800169cc f   libucrt:initnum.obj
 0001:00015a90       __acrt_locale_free_time    0000000180016a90 f   libucrt:inittime.obj
 0001:00015b98       __acrt_GetStringTypeA      0000000180016b98 f   libucrt:getstringtypea.obj
 0001:00015d28       ?__mbrtowc_utf8@__crt_mbstring@@YA_KPEA_WPEBD_KPEAU_Mbstatet@@@Z 0000000180016d28 f   libucrt:mbrtowc.obj
 0001:00015d64       ?__mbsrtowcs_utf8@__crt_mbstring@@YA_KPEA_WPEAPEBD_KPEAU_Mbstatet@@@Z 0000000180016d64 f   libucrt:mbrtowc.obj
 0001:00015edc       ?__c32rtomb_utf8@__crt_mbstring@@YA_KPEAD_UPEAU_Mbstatet@@@Z 0000000180016edc f   libucrt:c32rtomb.obj
 0001:00015f94       __acrt_fp_strflt_to_string 0000000180016f94 f   libucrt:_fptostr.obj
 0001:00016080       ?divide@__crt_strtox@@YA_KAEAUbig_integer@1@AEBU21@@Z 0000000180017080 f i libucrt:cfout.obj
 0001:000164ac       __acrt_fltout              00000001800174ac f   libucrt:cfout.obj
 0001:00017768       _isatty                    0000000180018768 f   libucrt:isatty.obj
 0001:000177c8       __acrt_lowio_create_handle_array 00000001800187c8 f   libucrt:osfinfo.obj
 0001:00017870       __acrt_lowio_destroy_handle_array 0000000180018870 f   libucrt:osfinfo.obj
 0001:000178c0       __acrt_lowio_ensure_fh_exists 00000001800188c0 f   libucrt:osfinfo.obj
 0001:00017968       __acrt_lowio_lock_fh       0000000180018968 f   libucrt:osfinfo.obj
 0001:00017990       __acrt_lowio_unlock_fh     0000000180018990 f   libucrt:osfinfo.obj
 0001:000179b8       _free_osfhnd               00000001800189b8 f   libucrt:osfinfo.obj
 0001:00017a74       _get_osfhandle             0000000180018a74 f   libucrt:osfinfo.obj
 0001:00017c78       _lseeki64                  0000000180018c78 f   libucrt:lseek.obj
 0001:00017c80       _lseeki64_nolock           0000000180018c80 f   libucrt:lseek.obj
 0001:00017c88       _putwch_nolock             0000000180018c88 f   libucrt:putwch.obj
 0001:00017cc4       __acrt_stdio_allocate_buffer_nolock 0000000180018cc4 f   libucrt:_getbuf.obj
 0001:00017d30       qsort                      0000000180018d30 f   libucrt:qsort.obj
 0001:000180f0       strncpy_s                  00000001800190f0 f   libucrt:strncpy_s.obj
 0001:00018270       strpbrk                    0000000180019270 f   libucrt:strpbrk.obj
 0001:00018650       _mbsdec                    0000000180019650 f   libucrt:mbsdec.obj
 0001:00018658       _mbsdec_l                  0000000180019658 f   libucrt:mbsdec.obj
 0001:00018704       _msize_base                0000000180019704 f   libucrt:msize.obj
 0001:00018828       __acrt_DownlevelLocaleNameToLCID 0000000180019828 f   libucrt:lcidtoname_downlevel.obj
 0001:0001885c       __acrt_GetStringTypeW      000000018001985c f   libucrt:getstringtypew.obj
 0001:00018864       _fclose_nolock             0000000180019864 f   libucrt:fclose.obj
 0001:000188e8       fclose                     00000001800198e8 f   libucrt:fclose.obj
 0001:0001894c       __strncnt                  000000018001994c f   libucrt:strncnt.obj
 0001:00018964       ?__mbrtoc32_utf8@__crt_mbstring@@YA_KPEA_UPEBD_KPEAU_Mbstatet@@@Z 0000000180019964 f   libucrt:mbrtoc32.obj
 0001:00018b40       fegetenv                   0000000180019b40 f   libucrt:fegetenv.obj
 0001:00018b60       fesetenv                   0000000180019b60 f   libucrt:fesetenv.obj
 0001:00018bb0       feholdexcept               0000000180019bb0 f   libucrt:feholdexcept.obj
 0001:00018c00       ceil                       0000000180019c00 f   libucrt:ceil.obj
 0001:00018cd0       log10                      0000000180019cd0 f   libucrt:log10.obj
 0001:0001927c       __dcrt_lowio_ensure_console_output_initialized 000000018001a27c f   libucrt:initcon.obj
 0001:000192d0       __dcrt_terminate_console_output 000000018001a2d0 f   libucrt:initcon.obj
 0001:000192ec       __dcrt_write_console       000000018001a2ec f   libucrt:initcon.obj
 0001:00019420       _close                     000000018001a420 f   libucrt:close.obj
 0001:000194c4       _close_nolock              000000018001a4c4 f   libucrt:close.obj
 0001:00019584       ?__acrt_stdio_free_stream@@YAXV__crt_stdio_stream@@@Z 000000018001a584 f   libucrt:stream.obj
 0001:000195a0       __acrt_fenv_get_control    000000018001a5a0 f   libucrt:_fenvutils.obj
 0001:00019694       __acrt_fenv_get_status     000000018001a694 f   libucrt:_fenvutils.obj
 0001:000196e8       __acrt_fenv_set_control    000000018001a6e8 f   libucrt:_fenvutils.obj
 0001:00019830       __acrt_fenv_set_status     000000018001a830 f   libucrt:_fenvutils.obj
 0001:000198b4       _clearfp                   000000018001a8b4 f   libucrt:ieee.obj
 0001:00019a48       _handle_error              000000018001aa48 f   libucrt:libm_error.obj
 0001:00019b70       _handle_nan                000000018001ab70 f   libucrt:libm_error.obj
 0001:00019b90       __acrt_initialize_fma3     000000018001ab90 f   libucrt:fma3_available.obj
 0001:00019c00       _log10_special             000000018001ac00 f   libucrt:log_special.obj
 0001:00019cd0       _get_fpsr                  000000018001acd0 f   libucrt:fpsr.obj
 0001:00019ce0       _set_fpsr                  000000018001ace0 f   libucrt:fpsr.obj
 0001:00019cea       _fclrf                     000000018001acea f   libucrt:fpsr.obj
 0001:00019cfe       _frnd                      000000018001acfe f   libucrt:fpsr.obj
 0001:00019d20       _raise_exc                 000000018001ad20 f   libucrt:fpexcept.obj
 0001:00019d48       _raise_exc_ex              000000018001ad48 f   libucrt:fpexcept.obj
 0001:0001a058       _set_errno_from_matherr    000000018001b058 f   libucrt:fpexcept.obj
 0001:0001a088       _clrfp                     000000018001b088 f   libucrt:fpctrl.obj
 0001:0001a0a8       _ctrlfp                    000000018001b0a8 f   libucrt:fpctrl.obj
 0001:0001a124       _set_statfp                000000018001b124 f   libucrt:fpctrl.obj
 0001:0001a144       _statfp                    000000018001b144 f   libucrt:fpctrl.obj
 0001:0001a155       IsProcessorFeaturePresent  000000018001b155 f   kernel32:KERNEL32.dll
 0001:0001a15c       ?DloadAcquireSectionWriteAccess@@YAXXZ 000000018001b15c f i DelayImp:delayhlp.obj
 0001:0001a208       ?DloadGetSRWLockFunctionPointers@@YAEXZ 000000018001b208 f i DelayImp:delayhlp.obj
 0001:0001a2a4       ?DloadMakePermanentImageCommit@@YAXPEAX_K@Z 000000018001b2a4 f i DelayImp:delayhlp.obj
 0001:0001a33c       ?DloadObtainSection@@YAPEAXPEAK0@Z 000000018001b33c f i DelayImp:delayhlp.obj
 0001:0001a3d8       ?DloadProtectSection@@YAXKPEAK@Z 000000018001b3d8 f i DelayImp:delayhlp.obj
 0001:0001a468       ?DloadReleaseSectionWriteAccess@@YAXXZ 000000018001b468 f i DelayImp:delayhlp.obj
 0001:0001a4fc       __delayLoadHelper2         000000018001b4fc f   DelayImp:delayhlp.obj
 0001:0001a7bc       __GSHandlerCheck           000000018001b7bc f   LIBCMT:gshandler.obj
 0001:0001a7dc       __GSHandlerCheckCommon     000000018001b7dc f   LIBCMT:gshandler.obj
 0001:0001a840       _FindPESection             000000018001b840 f   LIBCMT:pesect.obj
 0001:0001a890       _IsNonwritableInCurrentImage 000000018001b890 f   LIBCMT:pesect.obj
 0001:0001a8e0       _ValidateImageBase         000000018001b8e0 f   LIBCMT:pesect.obj
 0001:0001a920       _alloca_probe              000000018001b920 f   LIBCMT:chkstk.obj
 0001:0001a920       __chkstk                   000000018001b920 f   LIBCMT:chkstk.obj
 0001:0001a990       memcmp                     000000018001b990 f   libvcruntime:memcmp.obj
 0001:0001aa58       strrchr                    000000018001ba58 f   libvcruntime:strrchr.obj
 0001:0001aba4       __GSHandlerCheck_EH        000000018001bba4 f   LIBCMT:gshandlereh.obj
 0001:0001ac24       floor                      000000018001bc24 f   libucrt:floor.obj
 0001:0001acf0       _guard_dispatch_icall_nop  000000018001bcf0 f   LIBCMT:guard_dispatch.obj
 0002:00000000       __imp_GetModuleHandleA     000000018001d000     kernel32:KERNEL32.dll
 0002:00000008       __imp_LoadLibraryExA       000000018001d008     kernel32:KERNEL32.dll
 0002:00000010       __imp_RtlCaptureContext    000000018001d010     kernel32:KERNEL32.dll
 0002:00000018       __imp_RtlLookupFunctionEntry 000000018001d018     kernel32:KERNEL32.dll
 0002:00000020       __imp_RtlVirtualUnwind     000000018001d020     kernel32:KERNEL32.dll
 0002:00000028       __imp_UnhandledExceptionFilter 000000018001d028     kernel32:KERNEL32.dll
 0002:00000030       __imp_SetUnhandledExceptionFilter 000000018001d030     kernel32:KERNEL32.dll
 0002:00000038       __imp_GetCurrentProcess    000000018001d038     kernel32:KERNEL32.dll
 0002:00000040       __imp_TerminateProcess     000000018001d040     kernel32:KERNEL32.dll
 0002:00000048       __imp_IsProcessorFeaturePresent 000000018001d048     kernel32:KERNEL32.dll
 0002:00000050       __imp_IsDebuggerPresent    000000018001d050     kernel32:KERNEL32.dll
 0002:00000058       __imp_GetStartupInfoW      000000018001d058     kernel32:KERNEL32.dll
 0002:00000060       __imp_GetModuleHandleW     000000018001d060     kernel32:KERNEL32.dll
 0002:00000068       __imp_QueryPerformanceCounter 000000018001d068     kernel32:KERNEL32.dll
 0002:00000070       __imp_GetCurrentProcessId  000000018001d070     kernel32:KERNEL32.dll
 0002:00000078       __imp_GetCurrentThreadId   000000018001d078     kernel32:KERNEL32.dll
 0002:00000080       __imp_GetSystemTimeAsFileTime 000000018001d080     kernel32:KERNEL32.dll
 0002:00000088       __imp_InitializeSListHead  000000018001d088     kernel32:KERNEL32.dll
 0002:00000090       __imp_RtlUnwindEx          000000018001d090     kernel32:KERNEL32.dll
 0002:00000098       __imp_RtlPcToFileHeader    000000018001d098     kernel32:KERNEL32.dll
 0002:000000a0       __imp_RaiseException       000000018001d0a0     kernel32:KERNEL32.dll
 0002:000000a8       __imp_InterlockedFlushSList 000000018001d0a8     kernel32:KERNEL32.dll
 0002:000000b0       __imp_GetLastError         000000018001d0b0     kernel32:KERNEL32.dll
 0002:000000b8       __imp_SetLastError         000000018001d0b8     kernel32:KERNEL32.dll
 0002:000000c0       __imp_EncodePointer        000000018001d0c0     kernel32:KERNEL32.dll
 0002:000000c8       __imp_EnterCriticalSection 000000018001d0c8     kernel32:KERNEL32.dll
 0002:000000d0       __imp_LeaveCriticalSection 000000018001d0d0     kernel32:KERNEL32.dll
 0002:000000d8       __imp_DeleteCriticalSection 000000018001d0d8     kernel32:KERNEL32.dll
 0002:000000e0       __imp_InitializeCriticalSectionAndSpinCount 000000018001d0e0     kernel32:KERNEL32.dll
 0002:000000e8       __imp_TlsAlloc             000000018001d0e8     kernel32:KERNEL32.dll
 0002:000000f0       __imp_TlsGetValue          000000018001d0f0     kernel32:KERNEL32.dll
 0002:000000f8       __imp_TlsSetValue          000000018001d0f8     kernel32:KERNEL32.dll
 0002:00000100       __imp_TlsFree              000000018001d100     kernel32:KERNEL32.dll
 0002:00000108       __imp_FreeLibrary          000000018001d108     kernel32:KERNEL32.dll
 0002:00000110       __imp_GetProcAddress       000000018001d110     kernel32:KERNEL32.dll
 0002:00000118       __imp_LoadLibraryExW       000000018001d118     kernel32:KERNEL32.dll
 0002:00000120       __imp_GetStdHandle         000000018001d120     kernel32:KERNEL32.dll
 0002:00000128       __imp_GetFileType          000000018001d128     kernel32:KERNEL32.dll
 0002:00000130       __imp_GetModuleFileNameW   000000018001d130     kernel32:KERNEL32.dll
 0002:00000138       __imp_GetModuleHandleExW   000000018001d138     kernel32:KERNEL32.dll
 0002:00000140       __imp_WriteConsoleW        000000018001d140     kernel32:KERNEL32.dll
 0002:00000148       __imp_ExitProcess          000000018001d148     kernel32:KERNEL32.dll
 0002:00000150       __imp_HeapAlloc            000000018001d150     kernel32:KERNEL32.dll
 0002:00000158       __imp_HeapReAlloc          000000018001d158     kernel32:KERNEL32.dll
 0002:00000160       __imp_HeapFree             000000018001d160     kernel32:KERNEL32.dll
 0002:00000168       __imp_WriteFile            000000018001d168     kernel32:KERNEL32.dll
 0002:00000170       __imp_OutputDebugStringW   000000018001d170     kernel32:KERNEL32.dll
 0002:00000178       __imp_GetConsoleCP         000000018001d178     kernel32:KERNEL32.dll
 0002:00000180       __imp_GetConsoleMode       000000018001d180     kernel32:KERNEL32.dll
 0002:00000188       __imp_GetFileSizeEx        000000018001d188     kernel32:KERNEL32.dll
 0002:00000190       __imp_SetFilePointerEx     000000018001d190     kernel32:KERNEL32.dll
 0002:00000198       __imp_FindClose            000000018001d198     kernel32:KERNEL32.dll
 0002:000001a0       __imp_FindFirstFileExW     000000018001d1a0     kernel32:KERNEL32.dll
 0002:000001a8       __imp_FindNextFileW        000000018001d1a8     kernel32:KERNEL32.dll
 0002:000001b0       __imp_IsValidCodePage      000000018001d1b0     kernel32:KERNEL32.dll
 0002:000001b8       __imp_GetACP               000000018001d1b8     kernel32:KERNEL32.dll
 0002:000001c0       __imp_GetOEMCP             000000018001d1c0     kernel32:KERNEL32.dll
 0002:000001c8       __imp_GetCPInfo            000000018001d1c8     kernel32:KERNEL32.dll
 0002:000001d0       __imp_GetCommandLineA      000000018001d1d0     kernel32:KERNEL32.dll
 0002:000001d8       __imp_GetCommandLineW      000000018001d1d8     kernel32:KERNEL32.dll
 0002:000001e0       __imp_MultiByteToWideChar  000000018001d1e0     kernel32:KERNEL32.dll
 0002:000001e8       __imp_WideCharToMultiByte  000000018001d1e8     kernel32:KERNEL32.dll
 0002:000001f0       __imp_GetEnvironmentStringsW 000000018001d1f0     kernel32:KERNEL32.dll
 0002:000001f8       __imp_FreeEnvironmentStringsW 000000018001d1f8     kernel32:KERNEL32.dll
 0002:00000200       __imp_LCMapStringW         000000018001d200     kernel32:KERNEL32.dll
 0002:00000208       __imp_GetProcessHeap       000000018001d208     kernel32:KERNEL32.dll
 0002:00000210       __imp_FlushFileBuffers     000000018001d210     kernel32:KERNEL32.dll
 0002:00000218       __imp_GetStringTypeW       000000018001d218     kernel32:KERNEL32.dll
 0002:00000220       __imp_SetStdHandle         000000018001d220     kernel32:KERNEL32.dll
 0002:00000228       __imp_HeapSize             000000018001d228     kernel32:KERNEL32.dll
 0002:00000230       __imp_CreateFileW          000000018001d230     kernel32:KERNEL32.dll
 0002:00000238       __imp_CloseHandle          000000018001d238     kernel32:KERNEL32.dll
 0002:00000240       __imp_GetSystemInfo        000000018001d240     kernel32:KERNEL32.dll
 0002:00000248       __imp_VirtualProtect       000000018001d248     kernel32:KERNEL32.dll
 0002:00000250       __imp_VirtualQuery         000000018001d250     kernel32:KERNEL32.dll
 0002:00000258       \177KERNEL32_NULL_THUNK_DATA 000000018001d258     kernel32:KERNEL32.dll
 0002:00000260       __guard_check_icall_fptr   000000018001d260     LIBCMT:guard_support.obj
 0002:00000268       __guard_dispatch_icall_fptr 000000018001d268     LIBCMT:guard_support.obj
 0002:00000270       __xc_a                     000000018001d270     LIBCMT:initializers.obj
 0002:00000288       _register_msgpackBinding_  000000018001d288     msgpack.obj
 0002:00000290       __xc_z                     000000018001d290     LIBCMT:initializers.obj
 0002:00000298       __xi_a                     000000018001d298     LIBCMT:initializers.obj
 0002:000002a0       __acrt_stdio_initializer   000000018001d2a0     libucrt:stdio_initializer.obj
 0002:000002a8       __acrt_multibyte_initializer 000000018001d2a8     libucrt:multibyte_initializer.obj
 0002:000002b0       __acrt_tran_fma3_initializer 000000018001d2b0     libucrt:fma3_initializer.obj
 0002:000002b8       __xi_z                     000000018001d2b8     LIBCMT:initializers.obj
 0002:000002c0       __xp_a                     000000018001d2c0     LIBCMT:initializers.obj
 0002:000002c8       __acrt_locale_terminator   000000018001d2c8     libucrt:locale_initializer.obj
 0002:000002d0       __dcrt_console_output_terminator 000000018001d2d0     libucrt:console_output_initializer.obj
 0002:000002d8       __acrt_stdio_terminator    000000018001d2d8     libucrt:stdio_initializer.obj
 0002:000002e0       __xp_z                     000000018001d2e0     LIBCMT:initializers.obj
 0002:000002e8       __xt_a                     000000018001d2e8     LIBCMT:initializers.obj
 0002:000002f0       __xt_z                     000000018001d2f0     LIBCMT:initializers.obj
 0002:00000300       __sz_node_exe              000000018001d300     node:node.exe
 0002:00000318       ??_7exception@std@@6B@     000000018001d318     libcpmt:xthrow.obj
 0002:00000328       ??_C@_0BC@EOODALEL@Unknown?5exception@ 000000018001d328     libcpmt:xthrow.obj
 0002:00000348       ??_7bad_alloc@std@@6B@     000000018001d348     libcpmt:xthrow.obj
 0002:00000358       ??_C@_0P@GHFPNOJB@bad?5allocation@ 000000018001d358     libcpmt:xthrow.obj
 0002:00000370       ??_7logic_error@std@@6B@   000000018001d370     libcpmt:xthrow.obj
 0002:00000388       ??_7length_error@std@@6B@  000000018001d388     libcpmt:xthrow.obj
 0002:000003a0       ??_7type_info@@6B@         000000018001d3a0     LIBCMT:std_type_info_static.obj
 0002:000003a8       _pRawDllMain               000000018001d3a8     LIBCMT:dll_dllmain.obj
 0002:000003a8       _pDefaultRawDllMain        000000018001d3a8     LIBCMT:dll_dllmain.obj
 0002:000003c8       ??_7bad_array_new_length@std@@6B@ 000000018001d3c8     LIBCMT:throw_bad_alloc.obj
 0002:000003d8       ??_C@_0BF@KINCDENJ@bad?5array?5new?5length@ 000000018001d3d8     LIBCMT:throw_bad_alloc.obj
 0002:00000488       _pDestructExceptionObject  000000018001d488     libvcruntime:ehhelpers.obj
 0002:000004d8       ??_7bad_exception@std@@6B@ 000000018001d4d8     libvcruntime:frame.obj
 0002:000004e8       ??_C@_0O@DPKOEFFH@bad?5exception@ 000000018001d4e8     libvcruntime:frame.obj
 0002:00000510       ??_C@_1DM@KHCHBNEB@?$AAa?$AAp?$AAi?$AA?9?$AAm?$AAs?$AA?9?$AAw?$AAi?$AAn?$AA?9?$AAc?$AAo?$AAr?$AAe@ 000000018001d510     libvcruntime:winapi_downlevel.obj
 0002:00000550       ??_C@_1DK@LPPGFMPP@?$AAa?$AAp?$AAi?$AA?9?$AAm?$AAs?$AA?9?$AAw?$AAi?$AAn?$AA?9?$AAc?$AAo?$AAr?$AAe@ 000000018001d550     libvcruntime:winapi_downlevel.obj
 0002:00000590       ??_C@_1BC@GDMECMAK@?$AAk?$AAe?$AAr?$AAn?$AAe?$AAl?$AA3?$AA2@ 000000018001d590     libvcruntime:winapi_downlevel.obj
 0002:000005a8       ??_C@_1BA@PFFKHIOG@?$AAa?$AAp?$AAi?$AA?9?$AAm?$AAs?$AA?9@ 000000018001d5a8     libvcruntime:winapi_downlevel.obj
 0002:000005b8       ??_C@_1BA@IAIFMGEF@?$AAe?$AAx?$AAt?$AA?9?$AAm?$AAs?$AA?9@ 000000018001d5b8     libvcruntime:winapi_downlevel.obj
 0002:000005d0       ??_C@_08KNHFBNJ@FlsAlloc@  000000018001d5d0     libvcruntime:winapi_downlevel.obj
 0002:000005e8       ??_C@_07PEJMOBNF@FlsFree@  000000018001d5e8     libvcruntime:winapi_downlevel.obj
 0002:000005f8       ??_C@_0M@GDNOONDI@FlsGetValue@ 000000018001d5f8     libvcruntime:winapi_downlevel.obj
 0002:00000610       ??_C@_0M@JCPCPOEF@FlsSetValue@ 000000018001d610     libvcruntime:winapi_downlevel.obj
 0002:00000628       ??_C@_0BM@HCFOFFN@InitializeCriticalSectionEx@ 000000018001d628     libvcruntime:winapi_downlevel.obj
 0002:00000988       ??_C@_08EHJDFFNH@__based?$CI@ 000000018001d988     libvcruntime:undname.obj
 0002:00000998       ??_C@_07KOLFKCDI@__cdecl@  000000018001d998     libvcruntime:undname.obj
 0002:000009a0       ??_C@_08GHMPAG@__pascal@   000000018001d9a0     libvcruntime:undname.obj
 0002:000009b0       ??_C@_09IFJBGAPI@__stdcall@ 000000018001d9b0     libvcruntime:undname.obj
 0002:000009c0       ??_C@_0L@NPHFGOKO@__thiscall@ 000000018001d9c0     libvcruntime:undname.obj
 0002:000009d0       ??_C@_0L@JMKHOMEK@__fastcall@ 000000018001d9d0     libvcruntime:undname.obj
 0002:000009e0       ??_C@_0N@BCKKPABJ@__vectorcall@ 000000018001d9e0     libvcruntime:undname.obj
 0002:000009f0       ??_C@_09HIJEGCPM@__clrcall@ 000000018001d9f0     libvcruntime:undname.obj
 0002:000009fc       ??_C@_06GHPCKEAG@__eabi@   000000018001d9fc     libvcruntime:undname.obj
 0002:00000a08       ??_C@_09IOPIDJLG@__swift_1@ 000000018001da08     libvcruntime:undname.obj
 0002:00000a18       ??_C@_09KFNFGKHF@__swift_2@ 000000018001da18     libvcruntime:undname.obj
 0002:00000a28       ??_C@_07JOMMBBKO@__ptr64@  000000018001da28     libvcruntime:undname.obj
 0002:00000a30       ??_C@_0L@PILCLIHE@__restrict@ 000000018001da30     libvcruntime:undname.obj
 0002:00000a40       ??_C@_0M@GFIIJFMG@__unaligned@ 000000018001da40     libvcruntime:undname.obj
 0002:00000a50       ??_C@_09DHDLOLLB@restrict?$CI@ 000000018001da50     libvcruntime:undname.obj
 0002:00000a5a       ??_C@_00CNPNBAHC@@         000000018001da5a     libvcruntime:undname.obj
 0002:00000a5c       ??_C@_04NIHEBCM@?5new@     000000018001da5c     libvcruntime:undname.obj
 0002:00000a68       ??_C@_07FPCDHGMM@?5delete@ 000000018001da68     libvcruntime:undname.obj
 0002:00000a70       ??_C@_01NEMOKFLO@?$DN@     000000018001da70     libvcruntime:undname.obj
 0002:00000a74       ??_C@_02GPIOPFAK@?$DO?$DO@ 000000018001da74     libvcruntime:undname.obj
 0002:00000a78       ??_C@_02FODMEDOG@?$DM?$DM@ 000000018001da78     libvcruntime:undname.obj
 0002:00000a7c       ??_C@_01DCLJPIOD@?$CB@     000000018001da7c     libvcruntime:undname.obj
 0002:00000a80       ??_C@_02EGOFBIJA@?$DN?$DN@ 000000018001da80     libvcruntime:undname.obj
 0002:00000a84       ??_C@_02FDNJECIE@?$CB?$DN@ 000000018001da84     libvcruntime:undname.obj
 0002:00000a88       ??_C@_02GPECMEKF@?$FL?$FN@ 000000018001da88     libvcruntime:undname.obj
 0002:00000a90       ??_C@_08LHJFAFGD@operator@ 000000018001da90     libvcruntime:undname.obj
 0002:00000a9c       ??_C@_02HBOOOICD@?9?$DO@   000000018001da9c     libvcruntime:undname.obj
 0002:00000aa0       ??_C@_01NBENCBCI@?$CK@     000000018001daa0     libvcruntime:undname.obj
 0002:00000aa4       ??_C@_02ECNGHCIF@?$CL?$CL@ 000000018001daa4     libvcruntime:undname.obj
 0002:00000aa8       ??_C@_02BAABKJLB@?9?9@     000000018001daa8     libvcruntime:undname.obj
 0002:00000aac       ??_C@_01JOAMLHOP@?9@       000000018001daac     libvcruntime:undname.obj
 0002:00000ab0       ??_C@_01MIFGBAGJ@?$CL@     000000018001dab0     libvcruntime:undname.obj
 0002:00000ab4       ??_C@_01HNPIGOCE@?$CG@     000000018001dab4     libvcruntime:undname.obj
 0002:00000ab8       ??_C@_03MNHNFDLC@?9?$DO?$CK@ 000000018001dab8     libvcruntime:undname.obj
 0002:00000abc       ??_C@_01KMDKNFGN@?1@       000000018001dabc     libvcruntime:undname.obj
 0002:00000ac0       ??_C@_01FGNFDNOH@?$CF@     000000018001dac0     libvcruntime:undname.obj
 0002:00000ac4       ??_C@_01MNNFJEPP@?$DM@     000000018001dac4     libvcruntime:undname.obj
 0002:00000ac8       ??_C@_02EHCHHCKH@?$DM?$DN@ 000000018001dac8     libvcruntime:undname.obj
 0002:00000acc       ??_C@_01PPODPGHN@?$DO@     000000018001dacc     libvcruntime:undname.obj
 0002:00000ad0       ??_C@_02EEKDKGMJ@?$DO?$DN@ 000000018001dad0     libvcruntime:undname.obj
 0002:00000ad4       ??_C@_01IHBHIGKO@?0@       000000018001dad4     libvcruntime:undname.obj
 0002:00000ad8       ??_C@_02HCKGKOFO@?$CI?$CJ@ 000000018001dad8     libvcruntime:undname.obj
 0002:00000adc       ??_C@_01PJKLJHI@?$HO@      000000018001dadc     libvcruntime:undname.obj
 0002:00000ae0       ??_C@_01JKBOJNNK@?$FO@     000000018001dae0     libvcruntime:undname.obj
 0002:00000ae4       ??_C@_01DNKMNLPK@?$HM@     000000018001dae4     libvcruntime:undname.obj
 0002:00000ae8       ??_C@_02PPKAJPJL@?$CG?$CG@ 000000018001dae8     libvcruntime:undname.obj
 0002:00000aec       ??_C@_02NONPIBCD@?$HM?$HM@ 000000018001daec     libvcruntime:undname.obj
 0002:00000af0       ??_C@_02FPIMKNGF@?$CK?$DN@ 000000018001daf0     libvcruntime:undname.obj
 0002:00000af4       ??_C@_02FOEOMHFC@?$CL?$DN@ 000000018001daf4     libvcruntime:undname.obj
 0002:00000af8       ??_C@_02FKMDLLOA@?9?$DN@   000000018001daf8     libvcruntime:undname.obj
 0002:00000afc       ??_C@_02FJEHGPIO@?1?$DN@   000000018001dafc     libvcruntime:undname.obj
 0002:00000b00       ??_C@_02FENAOKFI@?$CF?$DN@ 000000018001db00     libvcruntime:undname.obj
 0002:00000b04       ??_C@_03IKFCCPFF@?$DO?$DO?$DN@ 000000018001db04     libvcruntime:undname.obj
 0002:00000b08       ??_C@_03CDNPDDLA@?$DM?$DM?$DN@ 000000018001db08     libvcruntime:undname.obj
 0002:00000b0c       ??_C@_02FGJGFEAB@?$CG?$DN@ 000000018001db0c     libvcruntime:undname.obj
 0002:00000b10       ??_C@_02DHLNPPGH@?$HM?$DN@ 000000018001db10     libvcruntime:undname.obj
 0002:00000b14       ??_C@_02MHEGNOJ@?$FO?$DN@  000000018001db14     libvcruntime:undname.obj
 0002:00000b18       ??_C@_09IFPLHPGF@?$GAvftable?8@ 000000018001db18     libvcruntime:undname.obj
 0002:00000b28       ??_C@_09BLBHBJP@?$GAvbtable?8@ 000000018001db28     libvcruntime:undname.obj
 0002:00000b38       ??_C@_07FEEIOKP@?$GAvcall?8@ 000000018001db38     libvcruntime:undname.obj
 0002:00000b40       ??_C@_08LLFFHHDJ@?$GAtypeof?8@ 000000018001db40     libvcruntime:undname.obj
 0002:00000b50       ??_C@_0BF@KDPPACIK@?$GAlocal?5static?5guard?8@ 000000018001db50     libvcruntime:undname.obj
 0002:00000b68       ??_C@_08OBABFOLI@?$GAstring?8@ 000000018001db68     libvcruntime:undname.obj
 0002:00000b78       ??_C@_0BD@JDLKDPAB@?$GAvbase?5destructor?8@ 000000018001db78     libvcruntime:undname.obj
 0002:00000b90       ??_C@_0BN@DEGPLNFK@?$GAvector?5deleting?5destructor?8@ 000000018001db90     libvcruntime:undname.obj
 0002:00000bb0       ??_C@_0BO@OBMKPJIG@?$GAdefault?5constructor?5closure?8@ 000000018001dbb0     libvcruntime:undname.obj
 0002:00000bd0       ??_C@_0BN@IMDCHIKM@?$GAscalar?5deleting?5destructor?8@ 000000018001dbd0     libvcruntime:undname.obj
 0002:00000bf0       ??_C@_0BO@PFGOCPJJ@?$GAvector?5constructor?5iterator?8@ 000000018001dbf0     libvcruntime:undname.obj
 0002:00000c10       ??_C@_0BN@LFPFMEDL@?$GAvector?5destructor?5iterator?8@ 000000018001dc10     libvcruntime:undname.obj
 0002:00000c30       ??_C@_0CE@IKBNEHA@?$GAvector?5vbase?5constructor?5itera@ 000000018001dc30     libvcruntime:undname.obj
 0002:00000c58       ??_C@_0BL@NILFHHPC@?$GAvirtual?5displacement?5map?8@ 000000018001dc58     libvcruntime:undname.obj
 0002:00000c78       ??_C@_0CB@JONCMFFK@?$GAeh?5vector?5constructor?5iterator@ 000000018001dc78     libvcruntime:undname.obj
 0002:00000ca0       ??_C@_0CA@GCEOPDGL@?$GAeh?5vector?5destructor?5iterator?8@ 000000018001dca0     libvcruntime:undname.obj
 0002:00000cc0       ??_C@_0CH@OOJPLCPH@?$GAeh?5vector?5vbase?5constructor?5it@ 000000018001dcc0     libvcruntime:undname.obj
 0002:00000ce8       ??_C@_0BL@LLKPOHJI@?$GAcopy?5constructor?5closure?8@ 000000018001dce8     libvcruntime:undname.obj
 0002:00000d08       ??_C@_0BA@KBCDOMBN@?$GAudt?5returning?8@ 000000018001dd08     libvcruntime:undname.obj
 0002:00000d18       ??_C@_03KLGMFNMG@?$GAEH@   000000018001dd18     libvcruntime:undname.obj
 0002:00000d1c       ??_C@_05KHLCHHI@?$GARTTI@  000000018001dd1c     libvcruntime:undname.obj
 0002:00000d28       ??_C@_0BA@KKLDJDLB@?$GAlocal?5vftable?8@ 000000018001dd28     libvcruntime:undname.obj
 0002:00000d38       ??_C@_0CE@IIHCMGGL@?$GAlocal?5vftable?5constructor?5clos@ 000000018001dd38     libvcruntime:undname.obj
 0002:00000d5c       ??_C@_06FHBGPFGH@?5new?$FL?$FN@ 000000018001dd5c     libvcruntime:undname.obj
 0002:00000d68       ??_C@_09LBNFPBCA@?5delete?$FL?$FN@ 000000018001dd68     libvcruntime:undname.obj
 0002:00000d78       ??_C@_0P@HJKNJFNN@?$GAomni?5callsig?8@ 000000018001dd78     libvcruntime:undname.obj
 0002:00000d88       ??_C@_0BL@CNOONJFP@?$GAplacement?5delete?5closure?8@ 000000018001dd88     libvcruntime:undname.obj
 0002:00000da8       ??_C@_0BN@CKNJLHMB@?$GAplacement?5delete?$FL?$FN?5closure?8@ 000000018001dda8     libvcruntime:undname.obj
 0002:00000dc8       ??_C@_0CG@CFDHKGGD@?$GAmanaged?5vector?5constructor?5ite@ 000000018001ddc8     libvcruntime:undname.obj
 0002:00000df0       ??_C@_0CF@IMGKMJNO@?$GAmanaged?5vector?5destructor?5iter@ 000000018001ddf0     libvcruntime:undname.obj
 0002:00000e18       ??_C@_0CG@HLDDJMAG@?$GAeh?5vector?5copy?5constructor?5ite@ 000000018001de18     libvcruntime:undname.obj
 0002:00000e40       ??_C@_0CM@FCBBDIGB@?$GAeh?5vector?5vbase?5copy?5construct@ 000000018001de40     libvcruntime:undname.obj
 0002:00000e70       ??_C@_0BL@CLIPGLGB@?$GAdynamic?5initializer?5for?5?8@ 000000018001de70     libvcruntime:undname.obj
 0002:00000e90       ??_C@_0CB@PDBIFEP@?$GAdynamic?5atexit?5destructor?5for?5@ 000000018001de90     libvcruntime:undname.obj
 0002:00000eb8       ??_C@_0CD@CGAJBKEJ@?$GAvector?5copy?5constructor?5iterat@ 000000018001deb8     libvcruntime:undname.obj
 0002:00000ee0       ??_C@_0CJ@GJELGAMM@?$GAvector?5vbase?5copy?5constructor?5@ 000000018001dee0     libvcruntime:undname.obj
 0002:00000f10       ??_C@_0CL@FGIJHLCE@?$GAmanaged?5vector?5copy?5constructo@ 000000018001df10     libvcruntime:undname.obj
 0002:00000f40       ??_C@_0BM@PMGGMLDN@?$GAlocal?5static?5thread?5guard?8@ 000000018001df40     libvcruntime:undname.obj
 0002:00000f60       ??_C@_0N@BDNMDMOL@operator?5?$CC?$CC?5@ 000000018001df60     libvcruntime:undname.obj
 0002:00000f70       ??_C@_0BC@GGEBGALA@operator?5co_await@ 000000018001df70     libvcruntime:undname.obj
 0002:00000f88       ??_C@_0BC@DAFEJGAK@?5Type?5Descriptor?8@ 000000018001df88     libvcruntime:undname.obj
 0002:00000fa0       ??_C@_0BM@LDKODKLH@?5Base?5Class?5Descriptor?5at?5?$CI@ 000000018001dfa0     libvcruntime:undname.obj
 0002:00000fc0       ??_C@_0BD@LGICGFMM@?5Base?5Class?5Array?8@ 000000018001dfc0     libvcruntime:undname.obj
 0002:00000fd8       ??_C@_0BN@MECKDCOJ@?5Class?5Hierarchy?5Descriptor?8@ 000000018001dfd8     libvcruntime:undname.obj
 0002:00000ff8       ??_C@_0BK@CFCOFLF@?5Complete?5Object?5Locator?8@ 000000018001dff8     libvcruntime:undname.obj
 0002:00001020       ??_C@_1FE@LHBLIKM@?$AAA?$AAs?$AAs?$AAe?$AAr?$AAt?$AAi?$AAo?$AAn?$AA?5?$AAf?$AAa?$AAi?$AAl?$AAe?$AAd?$AA?3?$AA?5?$AA?$CF?$AAT?$AAs?$AA?0?$AA?5?$AAf?$AAi?$AAl?$AAe?$AA?5?$AA?$CF?$AAT?$AAs?$AA?0@ 000000018001e020     libucrt:assert.obj
 0002:00001080       ??_C@_1EK@MBDPDCGA@?$AAM?$AAi?$AAc?$AAr?$AAo?$AAs?$AAo?$AAf?$AAt?$AA?5?$AAV?$AAi?$AAs?$AAu?$AAa?$AAl?$AA?5?$AAC?$AA?$CL?$AA?$CL?$AA?5?$AAR?$AAu?$AAn?$AAt?$AAi?$AAm?$AAe?$AA?5?$AAL?$AAi?$AAb@ 000000018001e080     libucrt:assert.obj
 0002:000010d0       ??_C@_1CE@OJBNHDMO@?$AAA?$AAs?$AAs?$AAe?$AAr?$AAt?$AAi?$AAo?$AAn?$AA?5?$AAf?$AAa?$AAi?$AAl?$AAe?$AAd?$AA?$CB?$AA?$AA@ 000000018001e0d0     libucrt:assert.obj
 0002:000010f8       ??_C@_1BE@PHKBBGE@?$AAP?$AAr?$AAo?$AAg?$AAr?$AAa?$AAm?$AA?3?$AA?5?$AA?$AA@ 000000018001e0f8     libucrt:assert.obj
 0002:00001110       ??_C@_1O@HEMHKNDC@?$AAF?$AAi?$AAl?$AAe?$AA?3?$AA?5?$AA?$AA@ 000000018001e110     libucrt:assert.obj
 0002:00001120       ??_C@_1O@KCAFKHJE@?$AAL?$AAi?$AAn?$AAe?$AA?3?$AA?5?$AA?$AA@ 000000018001e120     libucrt:assert.obj
 0002:00001130       ??_C@_1BK@PEDCIPMA@?$AAE?$AAx?$AAp?$AAr?$AAe?$AAs?$AAs?$AAi?$AAo?$AAn?$AA?3?$AA?5?$AA?$AA@ 000000018001e130     libucrt:assert.obj
 0002:00001150       ??_C@_1OA@EGMLFBHJ@?$AAF?$AAo?$AAr?$AA?5?$AAi?$AAn?$AAf?$AAo?$AAr?$AAm?$AAa?$AAt?$AAi?$AAo?$AAn?$AA?5?$AAo?$AAn?$AA?5?$AAh?$AAo?$AAw?$AA?5?$AAy?$AAo?$AAu?$AAr?$AA?5?$AAp?$AAr?$AAo?$AAg@ 000000018001e150     libucrt:assert.obj
 0002:00001230       ??_C@_1HK@POCJMFGK@?$AA?$CI?$AAP?$AAr?$AAe?$AAs?$AAs?$AA?5?$AAR?$AAe?$AAt?$AAr?$AAy?$AA?5?$AAt?$AAo?$AA?5?$AAd?$AAe?$AAb?$AAu?$AAg?$AA?5?$AAt?$AAh?$AAe?$AA?5?$AAa?$AAp?$AAp?$AAl?$AAi?$AAc@ 000000018001e230     libucrt:assert.obj
 0002:000012b0       ??_C@_17LGKOMLJ@?$AA?4?$AA?4?$AA?4?$AA?$AA@ 000000018001e2b0     libucrt:assert.obj
 0002:000012b8       ??_C@_13LBAGMAIH@?$AA?6?$AA?$AA@ 000000018001e2b8     libucrt:assert.obj
 0002:000012bc       ??_C@_15IABLJNFO@?$AA?6?$AA?6?$AA?$AA@ 000000018001e2bc     libucrt:assert.obj
 0002:000012c8       ??_C@_1CO@EAEJAADC@?$AA?$DM?$AAp?$AAr?$AAo?$AAg?$AAr?$AAa?$AAm?$AA?5?$AAn?$AAa?$AAm?$AAe?$AA?5?$AAu?$AAn?$AAk?$AAn?$AAo?$AAw?$AAn?$AA?$DO?$AA?$AA@ 000000018001e2c8     libucrt:assert.obj
 0002:00001300       standard_lookup_table      000000018001e300     libucrt:output.obj
 0002:00001360       ??_C@_1O@CEDCILHN@?$AA?$CI?$AAn?$AAu?$AAl?$AAl?$AA?$CJ?$AA?$AA@ 000000018001e360     libucrt:output.obj
 0002:00001370       ??_C@_06OJHGLDPL@?$CInull?$CJ?$AA@ 000000018001e370     libucrt:output.obj
 0002:00001380       __acrt_exception_action_table 000000018001e380     libucrt:exception_filter.obj
 0002:00001440       __acrt_signal_action_table_count 000000018001e440     libucrt:exception_filter.obj
 0002:00001448       __acrt_signal_action_first_fpe_index 000000018001e448     libucrt:exception_filter.obj
 0002:00001450       __acrt_signal_action_fpe_count 000000018001e450     libucrt:exception_filter.obj
 0002:00001458       ??_C@_1BI@BGOHAHKC@?$AAm?$AAs?$AAc?$AAo?$AAr?$AAe?$AAe?$AA?4?$AAd?$AAl?$AAl?$AA?$AA@ 000000018001e458     libucrt:exit.obj
 0002:00001470       ??_C@_0P@MIGLKIOC@CorExitProcess?$AA@ 000000018001e470     libucrt:exit.obj
 0002:000016f0       __lc_time_c                000000018001e6f0     libucrt:nlsdata.obj
 0002:000019b0       ??_C@_03KOEHGMDN@Sun?$AA@  000000018001e9b0     libucrt:nlsdata.obj
 0002:000019b4       ??_C@_03PDAGKDH@Mon?$AA@   000000018001e9b4     libucrt:nlsdata.obj
 0002:000019b8       ??_C@_03NAGEINEP@Tue?$AA@  000000018001e9b8     libucrt:nlsdata.obj
 0002:000019bc       ??_C@_03MHOMLAJA@Wed?$AA@  000000018001e9bc     libucrt:nlsdata.obj
 0002:000019c0       ??_C@_03IOFIKPDN@Thu?$AA@  000000018001e9c0     libucrt:nlsdata.obj
 0002:000019c4       ??_C@_03IDIOELNC@Fri?$AA@  000000018001e9c4     libucrt:nlsdata.obj
 0002:000019c8       ??_C@_03FEFJNEK@Sat?$AA@   000000018001e9c8     libucrt:nlsdata.obj
 0002:000019cc       ??_C@_06OOPIFAJ@Sunday?$AA@ 000000018001e9cc     libucrt:nlsdata.obj
 0002:000019d4       ??_C@_06JLEDEDGH@Monday?$AA@ 000000018001e9d4     libucrt:nlsdata.obj
 0002:000019e0       ??_C@_07BAAGCFCM@Tuesday?$AA@ 000000018001e9e0     libucrt:nlsdata.obj
 0002:000019e8       ??_C@_09DLIGFAKA@Wednesday?$AA@ 000000018001e9e8     libucrt:nlsdata.obj
 0002:000019f8       ??_C@_08HACCIKIA@Thursday?$AA@ 000000018001e9f8     libucrt:nlsdata.obj
 0002:00001a04       ??_C@_06JECMNKMI@Friday?$AA@ 000000018001ea04     libucrt:nlsdata.obj
 0002:00001a10       ??_C@_08INBOOONO@Saturday?$AA@ 000000018001ea10     libucrt:nlsdata.obj
 0002:00001a1c       ??_C@_03JIHJHPIE@Jan?$AA@  000000018001ea1c     libucrt:nlsdata.obj
 0002:00001a20       ??_C@_03HJBDCHOM@Feb?$AA@  000000018001ea20     libucrt:nlsdata.obj
 0002:00001a24       ??_C@_03ODNJBKGA@Mar?$AA@  000000018001ea24     libucrt:nlsdata.obj
 0002:00001a28       ??_C@_03LEOLGMJP@Apr?$AA@  000000018001ea28     libucrt:nlsdata.obj
 0002:00001a2c       ??_C@_03CNMDKL@May?$AA@    000000018001ea2c     libucrt:nlsdata.obj
 0002:00001a30       ??_C@_03IDFGHECI@Jun?$AA@  000000018001ea30     libucrt:nlsdata.obj
 0002:00001a34       ??_C@_03LBGABGKK@Jul?$AA@  000000018001ea34     libucrt:nlsdata.obj
 0002:00001a38       ??_C@_03IFJFEIGA@Aug?$AA@  000000018001ea38     libucrt:nlsdata.obj
 0002:00001a3c       ??_C@_03GGCAPAJC@Sep?$AA@  000000018001ea3c     libucrt:nlsdata.obj
 0002:00001a40       ??_C@_03BMAOKBAD@Oct?$AA@  000000018001ea40     libucrt:nlsdata.obj
 0002:00001a44       ??_C@_03JPJOFNIA@Nov?$AA@  000000018001ea44     libucrt:nlsdata.obj
 0002:00001a48       ??_C@_03MKABNOCG@Dec?$AA@  000000018001ea48     libucrt:nlsdata.obj
 0002:00001a50       ??_C@_07CGJPFGJA@January?$AA@ 000000018001ea50     libucrt:nlsdata.obj
 0002:00001a58       ??_C@_08GNJGEPFN@February?$AA@ 000000018001ea58     libucrt:nlsdata.obj
 0002:00001a64       ??_C@_05HPCKOFNC@March?$AA@ 000000018001ea64     libucrt:nlsdata.obj
 0002:00001a6c       ??_C@_05DMJDNLEJ@April?$AA@ 000000018001ea6c     libucrt:nlsdata.obj
 0002:00001a74       ??_C@_04CNLMGBGM@June?$AA@ 000000018001ea74     libucrt:nlsdata.obj
 0002:00001a7c       ??_C@_04MIEPOIFP@July?$AA@ 000000018001ea7c     libucrt:nlsdata.obj
 0002:00001a84       ??_C@_06LBBHFDDG@August?$AA@ 000000018001ea84     libucrt:nlsdata.obj
 0002:00001a90       ??_C@_09BHHEALKD@September?$AA@ 000000018001ea90     libucrt:nlsdata.obj
 0002:00001aa0       ??_C@_07JJNFCEND@October?$AA@ 000000018001eaa0     libucrt:nlsdata.obj
 0002:00001aa8       ??_C@_08HCHEGEOA@November?$AA@ 000000018001eaa8     libucrt:nlsdata.obj
 0002:00001ab8       ??_C@_08EDHMEBNP@December?$AA@ 000000018001eab8     libucrt:nlsdata.obj
 0002:00001ac4       ??_C@_02DEDBPAFC@AM?$AA@   000000018001eac4     libucrt:nlsdata.obj
 0002:00001ac8       ??_C@_02CJNFDJBF@PM?$AA@   000000018001eac8     libucrt:nlsdata.obj
 0002:00001ad0       ??_C@_08BPBNCDIB@MM?1dd?1yy?$AA@ 000000018001ead0     libucrt:nlsdata.obj
 0002:00001ae0       ??_C@_0BE@CKGJFCPC@dddd?0?5MMMM?5dd?0?5yyyy?$AA@ 000000018001eae0     libucrt:nlsdata.obj
 0002:00001af8       ??_C@_08JCCMCCIL@HH?3mm?3ss?$AA@ 000000018001eaf8     libucrt:nlsdata.obj
 0002:00001b08       ??_C@_17MBGCMIPB@?$AAS?$AAu?$AAn?$AA?$AA@ 000000018001eb08     libucrt:nlsdata.obj
 0002:00001b10       ??_C@_17KBOMKBF@?$AAM?$AAo?$AAn?$AA?$AA@ 000000018001eb10     libucrt:nlsdata.obj
 0002:00001b18       ??_C@_17BMKGEGOJ@?$AAT?$AAu?$AAe?$AA?$AA@ 000000018001eb18     libucrt:nlsdata.obj
 0002:00001b20       ??_C@_17CJEDCEPE@?$AAW?$AAe?$AAd?$AA?$AA@ 000000018001eb20     libucrt:nlsdata.obj
 0002:00001b28       ??_C@_17PDPHAADD@?$AAT?$AAh?$AAu?$AA?$AA@ 000000018001eb28     libucrt:nlsdata.obj
 0002:00001b30       ??_C@_17HFOLPPLP@?$AAF?$AAr?$AAi?$AA?$AA@ 000000018001eb30     libucrt:nlsdata.obj
 0002:00001b38       ??_C@_17GGIBDPIH@?$AAS?$AAa?$AAt?$AA?$AA@ 000000018001eb38     libucrt:nlsdata.obj
 0002:00001b40       ??_C@_1O@IHNHDHPB@?$AAS?$AAu?$AAn?$AAd?$AAa?$AAy?$AA?$AA@ 000000018001eb40     libucrt:nlsdata.obj
 0002:00001b50       ??_C@_1O@MMNBFLIA@?$AAM?$AAo?$AAn?$AAd?$AAa?$AAy?$AA?$AA@ 000000018001eb50     libucrt:nlsdata.obj
 0002:00001b60       ??_C@_1BA@ENFBFFEK@?$AAT?$AAu?$AAe?$AAs?$AAd?$AAa?$AAy?$AA?$AA@ 000000018001eb60     libucrt:nlsdata.obj
 0002:00001b70       ??_C@_1BE@EBOGMDOH@?$AAW?$AAe?$AAd?$AAn?$AAe?$AAs?$AAd?$AAa?$AAy?$AA?$AA@ 000000018001eb70     libucrt:nlsdata.obj
 0002:00001b88       ??_C@_1BC@HHMNLIHE@?$AAT?$AAh?$AAu?$AAr?$AAs?$AAd?$AAa?$AAy?$AA?$AA@ 000000018001eb88     libucrt:nlsdata.obj
 0002:00001ba0       ??_C@_1O@PDICJHAG@?$AAF?$AAr?$AAi?$AAd?$AAa?$AAy?$AA?$AA@ 000000018001eba0     libucrt:nlsdata.obj
 0002:00001bb0       ??_C@_1BC@ENMNNPAJ@?$AAS?$AAa?$AAt?$AAu?$AAr?$AAd?$AAa?$AAy?$AA?$AA@ 000000018001ebb0     libucrt:nlsdata.obj
 0002:00001bc8       ??_C@_17DKNBKCHM@?$AAJ?$AAa?$AAn?$AA?$AA@ 000000018001ebc8     libucrt:nlsdata.obj
 0002:00001bd0       ??_C@_17LMDJEKJN@?$AAF?$AAe?$AAb?$AA?$AA@ 000000018001ebd0     libucrt:nlsdata.obj
 0002:00001bd8       ??_C@_17CKNLEDEC@?$AAM?$AAa?$AAr?$AA?$AA@ 000000018001ebd8     libucrt:nlsdata.obj
 0002:00001be0       ??_C@_17LFPOIHDD@?$AAA?$AAp?$AAr?$AA?$AA@ 000000018001ebe0     libucrt:nlsdata.obj
 0002:00001be8       ??_C@_17PNNKMEED@?$AAM?$AAa?$AAy?$AA?$AA@ 000000018001ebe8     libucrt:nlsdata.obj
 0002:00001bf0       ??_C@_17KCJGOCPB@?$AAJ?$AAu?$AAn?$AA?$AA@ 000000018001ebf0     libucrt:nlsdata.obj
 0002:00001bf8       ??_C@_17IJPCKHK@?$AAJ?$AAu?$AAl?$AA?$AA@ 000000018001ebf8     libucrt:nlsdata.obj
 0002:00001c00       ??_C@_17ICPELBCN@?$AAA?$AAu?$AAg?$AA?$AA@ 000000018001ec00     libucrt:nlsdata.obj
 0002:00001c08       ??_C@_17HCHCOKMG@?$AAS?$AAe?$AAp?$AA?$AA@ 000000018001ec08     libucrt:nlsdata.obj
 0002:00001c10       ??_C@_17FNLKOI@?$AAO?$AAc?$AAt?$AA?$AA@ 000000018001ec10     libucrt:nlsdata.obj
 0002:00001c18       ??_C@_17BBDMLCIG@?$AAN?$AAo?$AAv?$AA?$AA@ 000000018001ec18     libucrt:nlsdata.obj
 0002:00001c20       ??_C@_17EGKACKIF@?$AAD?$AAe?$AAc?$AA?$AA@ 000000018001ec20     libucrt:nlsdata.obj
 0002:00001c28       ??_C@_1BA@EFMEIEBA@?$AAJ?$AAa?$AAn?$AAu?$AAa?$AAr?$AAy?$AA?$AA@ 000000018001ec28     libucrt:nlsdata.obj
 0002:00001c38       ??_C@_1BC@JGDDFFAM@?$AAF?$AAe?$AAb?$AAr?$AAu?$AAa?$AAr?$AAy?$AA?$AA@ 000000018001ec38     libucrt:nlsdata.obj
 0002:00001c50       ??_C@_1M@IKEENEDF@?$AAM?$AAa?$AAr?$AAc?$AAh?$AA?$AA@ 000000018001ec50     libucrt:nlsdata.obj
 0002:00001c60       ??_C@_1M@GJNLMHFD@?$AAA?$AAp?$AAr?$AAi?$AAl?$AA?$AA@ 000000018001ec60     libucrt:nlsdata.obj
 0002:00001c70       ??_C@_19EPFLPGAP@?$AAJ?$AAu?$AAn?$AAe?$AA?$AA@ 000000018001ec70     libucrt:nlsdata.obj
 0002:00001c80       ??_C@_19BIFMLPCD@?$AAJ?$AAu?$AAl?$AAy?$AA?$AA@ 000000018001ec80     libucrt:nlsdata.obj
 0002:00001c90       ??_C@_1O@PAHLKOAC@?$AAA?$AAu?$AAg?$AAu?$AAs?$AAt?$AA?$AA@ 000000018001ec90     libucrt:nlsdata.obj
 0002:00001ca0       ??_C@_1BE@DKAAMBJL@?$AAS?$AAe?$AAp?$AAt?$AAe?$AAm?$AAb?$AAe?$AAr?$AA?$AA@ 000000018001eca0     libucrt:nlsdata.obj
 0002:00001cb8       ??_C@_1BA@EPANDLNG@?$AAO?$AAc?$AAt?$AAo?$AAb?$AAe?$AAr?$AA?$AA@ 000000018001ecb8     libucrt:nlsdata.obj
 0002:00001cc8       ??_C@_1BC@BGLIFPF@?$AAN?$AAo?$AAv?$AAe?$AAm?$AAb?$AAe?$AAr?$AA?$AA@ 000000018001ecc8     libucrt:nlsdata.obj
 0002:00001ce0       ??_C@_1BC@FEMKIFH@?$AAD?$AAe?$AAc?$AAe?$AAm?$AAb?$AAe?$AAr?$AA?$AA@ 000000018001ece0     libucrt:nlsdata.obj
 0002:00001cf4       ??_C@_15ODEHAHHF@?$AAA?$AAM?$AA?$AA@ 000000018001ecf4     libucrt:nlsdata.obj
 0002:00001cfc       ??_C@_15CLMNNGEL@?$AAP?$AAM?$AA?$AA@ 000000018001ecfc     libucrt:nlsdata.obj
 0002:00001d08       ??_C@_1BC@IEBCMHCM@?$AAM?$AAM?$AA?1?$AAd?$AAd?$AA?1?$AAy?$AAy?$AA?$AA@ 000000018001ed08     libucrt:nlsdata.obj
 0002:00001d20       ??_C@_1CI@KNAKOEBC@?$AAd?$AAd?$AAd?$AAd?$AA?0?$AA?5?$AAM?$AAM?$AAM?$AAM?$AA?5?$AAd?$AAd?$AA?0?$AA?5?$AAy?$AAy?$AAy?$AAy?$AA?$AA@ 000000018001ed20     libucrt:nlsdata.obj
 0002:00001d48       ??_C@_1BC@GDGBMEMK@?$AAH?$AAH?$AA?3?$AAm?$AAm?$AA?3?$AAs?$AAs?$AA?$AA@ 000000018001ed48     libucrt:nlsdata.obj
 0002:00001d60       ??_C@_1M@BMHNFIME@?$AAe?$AAn?$AA?9?$AAU?$AAS?$AA?$AA@ 000000018001ed60     libucrt:nlsdata.obj
 0002:00001d6c       ??_C@_03OEIAHPBN@INF?$AA@  000000018001ed6c     libucrt:cvt.obj
 0002:00001d70       ??_C@_03OJHLLCGB@inf?$AA@  000000018001ed70     libucrt:cvt.obj
 0002:00001d74       ??_C@_03LKNCIKJB@NAN?$AA@  000000018001ed74     libucrt:cvt.obj
 0002:00001d78       ??_C@_03LHCJEHON@nan?$AA@  000000018001ed78     libucrt:cvt.obj
 0002:00001d80       ??_C@_09OFJJIMPC@NAN?$CISNAN?$CJ?$AA@ 000000018001ed80     libucrt:cvt.obj
 0002:00001d90       ??_C@_09IPFBKMDL@nan?$CIsnan?$CJ?$AA@ 000000018001ed90     libucrt:cvt.obj
 0002:00001da0       ??_C@_08IKHNHAJ@NAN?$CIIND?$CJ?$AA@ 000000018001eda0     libucrt:cvt.obj
 0002:00001db0       ??_C@_08OFCDMILK@nan?$CIind?$CJ?$AA@ 000000018001edb0     libucrt:cvt.obj
 0002:00001dbc       ??_C@_05KLBDPFGC@e?$CL000?$AA@ 000000018001edbc     libucrt:cvt.obj
 0002:00001de8       ??_C@_1M@HPNHIDJI@?$AAj?$AAa?$AA?9?$AAJ?$AAP?$AA?$AA@ 000000018001ede8     libucrt:mbctype.obj
 0002:00001df8       ??_C@_1M@BIBDDEMK@?$AAz?$AAh?$AA?9?$AAC?$AAN?$AA?$AA@ 000000018001edf8     libucrt:mbctype.obj
 0002:00001e08       ??_C@_1M@JLOOOEGK@?$AAk?$AAo?$AA?9?$AAK?$AAR?$AA?$AA@ 000000018001ee08     libucrt:mbctype.obj
 0002:00001e18       ??_C@_1M@CLNBBOPM@?$AAz?$AAh?$AA?9?$AAT?$AAW?$AA?$AA@ 000000018001ee18     libucrt:mbctype.obj
 0002:00001ed0       ??_C@_1EA@JGEFHKEI@?$AAa?$AAp?$AAi?$AA?9?$AAm?$AAs?$AA?9?$AAw?$AAi?$AAn?$AA?9?$AAc?$AAo?$AAr?$AAe?$AA?9?$AAd?$AAa?$AAt?$AAe?$AAt?$AAi?$AAm?$AAe?$AA?9?$AAl?$AA1?$AA?9?$AA1?$AA?9?$AA1?$AA?$AA@ 000000018001eed0     libucrt:winapi_thunks.obj
 0002:00001f10       ??_C@_1DM@KHCHBNEB@?$AAa?$AAp?$AAi?$AA?9?$AAm?$AAs?$AA?9?$AAw?$AAi?$AAn?$AA?9?$AAc?$AAo?$AAr?$AAe?$AA?9?$AAf?$AAi?$AAb?$AAe?$AAr?$AAs?$AA?9?$AAl?$AA1?$AA?9?$AA1?$AA?9?$AA1?$AA?$AA@ 000000018001ef10     libucrt:winapi_thunks.obj
 0002:00001f50       ??_C@_1DI@IJCEHOCB@?$AAa?$AAp?$AAi?$AA?9?$AAm?$AAs?$AA?9?$AAw?$AAi?$AAn?$AA?9?$AAc?$AAo?$AAr?$AAe?$AA?9?$AAf?$AAi?$AAl?$AAe?$AA?9?$AAl?$AA1?$AA?9?$AA2?$AA?9?$AA2?$AA?$AA@ 000000018001ef50     libucrt:winapi_thunks.obj
 0002:00001f90       ??_C@_1EI@MPIAOHOC@?$AAa?$AAp?$AAi?$AA?9?$AAm?$AAs?$AA?9?$AAw?$AAi?$AAn?$AA?9?$AAc?$AAo?$AAr?$AAe?$AA?9?$AAl?$AAo?$AAc?$AAa?$AAl?$AAi?$AAz?$AAa?$AAt?$AAi?$AAo?$AAn?$AA?9?$AAl?$AA1?$AA?9@ 000000018001ef90     libucrt:winapi_thunks.obj
 0002:00001fe0       ??_C@_1FK@FPHCKFIE@?$AAa?$AAp?$AAi?$AA?9?$AAm?$AAs?$AA?9?$AAw?$AAi?$AAn?$AA?9?$AAc?$AAo?$AAr?$AAe?$AA?9?$AAl?$AAo?$AAc?$AAa?$AAl?$AAi?$AAz?$AAa?$AAt?$AAi?$AAo?$AAn?$AA?9?$AAo?$AAb?$AAs@ 000000018001efe0     libucrt:winapi_thunks.obj
 0002:00002040       ??_C@_1EM@DILCGIIO@?$AAa?$AAp?$AAi?$AA?9?$AAm?$AAs?$AA?9?$AAw?$AAi?$AAn?$AA?9?$AAc?$AAo?$AAr?$AAe?$AA?9?$AAp?$AAr?$AAo?$AAc?$AAe?$AAs?$AAs?$AAt?$AAh?$AAr?$AAe?$AAa?$AAd?$AAs?$AA?9?$AAl@ 000000018001f040     libucrt:winapi_thunks.obj
 0002:00002090       ??_C@_1DM@LNCGDDPN@?$AAa?$AAp?$AAi?$AA?9?$AAm?$AAs?$AA?9?$AAw?$AAi?$AAn?$AA?9?$AAc?$AAo?$AAr?$AAe?$AA?9?$AAs?$AAt?$AAr?$AAi?$AAn?$AAg?$AA?9?$AAl?$AA1?$AA?9?$AA1?$AA?9?$AA0?$AA?$AA@ 000000018001f090     libucrt:winapi_thunks.obj
 0002:000020d0       ??_C@_1DK@LPPGFMPP@?$AAa?$AAp?$AAi?$AA?9?$AAm?$AAs?$AA?9?$AAw?$AAi?$AAn?$AA?9?$AAc?$AAo?$AAr?$AAe?$AA?9?$AAs?$AAy?$AAn?$AAc?$AAh?$AA?9?$AAl?$AA1?$AA?9?$AA2?$AA?9?$AA0?$AA?$AA@ 000000018001f0d0     libucrt:winapi_thunks.obj
 0002:00002110       ??_C@_1DO@FPAPJEMD@?$AAa?$AAp?$AAi?$AA?9?$AAm?$AAs?$AA?9?$AAw?$AAi?$AAn?$AA?9?$AAc?$AAo?$AAr?$AAe?$AA?9?$AAs?$AAy?$AAs?$AAi?$AAn?$AAf?$AAo?$AA?9?$AAl?$AA1?$AA?9?$AA2?$AA?9?$AA1?$AA?$AA@ 000000018001f110     libucrt:winapi_thunks.obj
 0002:00002150       ??_C@_1DK@NDHNAHIO@?$AAa?$AAp?$AAi?$AA?9?$AAm?$AAs?$AA?9?$AAw?$AAi?$AAn?$AA?9?$AAc?$AAo?$AAr?$AAe?$AA?9?$AAw?$AAi?$AAn?$AAr?$AAt?$AA?9?$AAl?$AA1?$AA?9?$AA1?$AA?9?$AA0?$AA?$AA@ 000000018001f150     libucrt:winapi_thunks.obj
 0002:00002190       ??_C@_1DM@KGHDGBCM@?$AAa?$AAp?$AAi?$AA?9?$AAm?$AAs?$AA?9?$AAw?$AAi?$AAn?$AA?9?$AAc?$AAo?$AAr?$AAe?$AA?9?$AAx?$AAs?$AAt?$AAa?$AAt?$AAe?$AA?9?$AAl?$AA2?$AA?9?$AA1?$AA?9?$AA0?$AA?$AA@ 000000018001f190     libucrt:winapi_thunks.obj
 0002:000021d0       ??_C@_1EO@IJIOEFOH@?$AAa?$AAp?$AAi?$AA?9?$AAm?$AAs?$AA?9?$AAw?$AAi?$AAn?$AA?9?$AAr?$AAt?$AAc?$AAo?$AAr?$AAe?$AA?9?$AAn?$AAt?$AAu?$AAs?$AAe?$AAr?$AA?9?$AAw?$AAi?$AAn?$AAd?$AAo?$AAw?$AA?9@ 000000018001f1d0     libucrt:winapi_thunks.obj
 0002:00002220       ??_C@_1FG@HHGEKANL@?$AAa?$AAp?$AAi?$AA?9?$AAm?$AAs?$AA?9?$AAw?$AAi?$AAn?$AA?9?$AAs?$AAe?$AAc?$AAu?$AAr?$AAi?$AAt?$AAy?$AA?9?$AAs?$AAy?$AAs?$AAt?$AAe?$AAm?$AAf?$AAu?$AAn?$AAc?$AAt?$AAi@ 000000018001f220     libucrt:winapi_thunks.obj
 0002:00002280       ??_C@_1EG@DBIOJECG@?$AAe?$AAx?$AAt?$AA?9?$AAm?$AAs?$AA?9?$AAw?$AAi?$AAn?$AA?9?$AAn?$AAt?$AAu?$AAs?$AAe?$AAr?$AA?9?$AAd?$AAi?$AAa?$AAl?$AAo?$AAg?$AAb?$AAo?$AAx?$AA?9?$AAl?$AA1?$AA?9?$AA1@ 000000018001f280     libucrt:winapi_thunks.obj
 0002:000022d0       ??_C@_1EO@FIHMJCLF@?$AAe?$AAx?$AAt?$AA?9?$AAm?$AAs?$AA?9?$AAw?$AAi?$AAn?$AA?9?$AAn?$AAt?$AAu?$AAs?$AAe?$AAr?$AA?9?$AAw?$AAi?$AAn?$AAd?$AAo?$AAw?$AAs?$AAt?$AAa?$AAt?$AAi?$AAo?$AAn?$AA?9@ 000000018001f2d0     libucrt:winapi_thunks.obj
 0002:00002320       ??_C@_1BC@DNHGCMLG@?$AAa?$AAd?$AAv?$AAa?$AAp?$AAi?$AA3?$AA2?$AA?$AA@ 000000018001f320     libucrt:winapi_thunks.obj
 0002:00002338       ??_C@_1BC@GDMECMAK@?$AAk?$AAe?$AAr?$AAn?$AAe?$AAl?$AA3?$AA2?$AA?$AA@ 000000018001f338     libucrt:winapi_thunks.obj
 0002:00002350       ??_C@_1M@OAIMIKLP@?$AAn?$AAt?$AAd?$AAl?$AAl?$AA?$AA@ 000000018001f350     libucrt:winapi_thunks.obj
 0002:00002360       ??_C@_1EG@DPGNFKGC@?$AAa?$AAp?$AAi?$AA?9?$AAm?$AAs?$AA?9?$AAw?$AAi?$AAn?$AA?9?$AAa?$AAp?$AAp?$AAm?$AAo?$AAd?$AAe?$AAl?$AA?9?$AAr?$AAu?$AAn?$AAt?$AAi?$AAm?$AAe?$AA?9?$AAl?$AA1?$AA?9?$AA1@ 000000018001f360     libucrt:winapi_thunks.obj
 0002:000023a8       ??_C@_1O@BCCLBEOE@?$AAu?$AAs?$AAe?$AAr?$AA3?$AA2?$AA?$AA@ 000000018001f3a8     libucrt:winapi_thunks.obj
 0002:000023b8       ??_C@_1BA@PFFKHIOG@?$AAa?$AAp?$AAi?$AA?9?$AAm?$AAs?$AA?9?$AA?$AA@ 000000018001f3b8     libucrt:winapi_thunks.obj
 0002:000023c8       ??_C@_1BA@IAIFMGEF@?$AAe?$AAx?$AAt?$AA?9?$AAm?$AAs?$AA?9?$AA?$AA@ 000000018001f3c8     libucrt:winapi_thunks.obj
 0002:000023e0       ??_C@_0BA@FHFNEAED@AreFileApisANSI?$AA@ 000000018001f3e0     libucrt:winapi_thunks.obj
 0002:000023f8       ??_C@_08KNHFBNJ@FlsAlloc?$AA@ 000000018001f3f8     libucrt:winapi_thunks.obj
 0002:00002410       ??_C@_07PEJMOBNF@FlsFree?$AA@ 000000018001f410     libucrt:winapi_thunks.obj
 0002:00002420       ??_C@_0M@GDNOONDI@FlsGetValue?$AA@ 000000018001f420     libucrt:winapi_thunks.obj
 0002:00002438       ??_C@_0M@JCPCPOEF@FlsSetValue?$AA@ 000000018001f438     libucrt:winapi_thunks.obj
 0002:00002450       ??_C@_0BA@HNOPNCHB@GetActiveWindow?$AA@ 000000018001f450     libucrt:winapi_thunks.obj
 0002:00002468       ??_C@_0BD@HHGDFDBJ@GetLastActivePopup?$AA@ 000000018001f468     libucrt:winapi_thunks.obj
 0002:00002488       ??_C@_0BI@DFKBFLJE@GetProcessWindowStation?$AA@ 000000018001f488     libucrt:winapi_thunks.obj
 0002:000024a8       ??_C@_0BK@DEKFELLI@GetUserObjectInformationW?$AA@ 000000018001f4a8     libucrt:winapi_thunks.obj
 0002:000024d0       ??_C@_0BM@HCFOFFN@InitializeCriticalSectionEx?$AA@ 000000018001f4d0     libucrt:winapi_thunks.obj
 0002:000024f8       ??_C@_0O@KKBNKAPF@LCMapStringEx?$AA@ 000000018001f4f8     libucrt:winapi_thunks.obj
 0002:00002510       ??_C@_0BB@HBDEELFH@LocaleNameToLCID?$AA@ 000000018001f510     libucrt:winapi_thunks.obj
 0002:00002530       ??_C@_0M@CHKKJDAI@MessageBoxA?$AA@ 000000018001f530     libucrt:winapi_thunks.obj
 0002:00002548       ??_C@_0M@DLDCCGNP@MessageBoxW?$AA@ 000000018001f548     libucrt:winapi_thunks.obj
 0002:00002558       ??_C@_0CF@OJOFEIGO@AppPolicyGetProcessTerminationMe@ 000000018001f558     libucrt:winapi_thunks.obj
 0002:00002588       ??_C@_0CE@OICFMIKE@AppPolicyGetShowDeveloperDiagnos@ 000000018001f588     libucrt:winapi_thunks.obj
 0002:000025b0       ??_C@_0BL@ODDJNEDA@AppPolicyGetWindowingModel?$AA@ 000000018001f5b0     libucrt:winapi_thunks.obj
 0002:000025d0       __newctype                 000000018001f5d0     libucrt:ctype.obj
 0002:000028d0       __newclmap                 000000018001f8d0     libucrt:ctype.obj
 0002:00002a50       __newcumap                 000000018001fa50     libucrt:ctype.obj
 0002:00002bd0       _wctype                    000000018001fbd0     libucrt:ctype.obj
 0002:00002dd4       ??_C@_15PJPFLCCM@?$AAu?$AAk?$AA?$AA@ 000000018001fdd4     libucrt:get_qualified_locale.obj
 0002:00002dda       ??_C@_00CNPNBAHC@?$AA@     000000018001fdda     libucrt:mbrtowc.obj
 0002:00002de0       ?large_power_data@?1??multiply_by_power_of_ten@__crt_strtox@@YA_NAEAUbig_integer@2@I@Z@4QBIB 000000018001fde0     libucrt:cfout.obj
 0002:000036f0       ?large_power_indices@?1??multiply_by_power_of_ten@__crt_strtox@@YA_NAEAUbig_integer@2@I@Z@4QBUunpack_index@?1??12@YA_N0I@Z@B 00000001800206f0     libucrt:cfout.obj
 0002:00003788       ?small_powers_of_ten@?1??multiply_by_power_of_ten@__crt_strtox@@YA_NAEAUbig_integer@2@I@Z@4QBIB 0000000180020788     libucrt:cfout.obj
 0002:000037ac       ??_C@_01GBGANLPD@0?$AA@    00000001800207ac     libucrt:cfout.obj
 0002:000037b0       ??_C@_05DNEBIAHO@1?$CDINF?$AA@ 00000001800207b0     libucrt:cfout.obj
 0002:000037b8       ??_C@_06IMKFLFPG@1?$CDQNAN?$AA@ 00000001800207b8     libucrt:cfout.obj
 0002:000037c0       ??_C@_06PGGFOGJG@1?$CDSNAN?$AA@ 00000001800207c0     libucrt:cfout.obj
 0002:000037c8       ??_C@_05PHHOCPM@1?$CDIND?$AA@ 00000001800207c8     libucrt:cfout.obj
 0002:00004610       ??_C@_15EMKDOKLE@?$AAa?$AAr?$AA?$AA@ 0000000180021610     libucrt:lcidtoname_downlevel.obj
 0002:00004618       ??_C@_15KNPADPLH@?$AAb?$AAg?$AA?$AA@ 0000000180021618     libucrt:lcidtoname_downlevel.obj
 0002:00004620       ??_C@_15EDMHLDMO@?$AAc?$AAa?$AA?$AA@ 0000000180021620     libucrt:lcidtoname_downlevel.obj
 0002:00004628       ??_C@_1O@BPEAJADD@?$AAz?$AAh?$AA?9?$AAC?$AAH?$AAS?$AA?$AA@ 0000000180021628     libucrt:lcidtoname_downlevel.obj
 0002:00004638       ??_C@_15LJNHCMNK@?$AAc?$AAs?$AA?$AA@ 0000000180021638     libucrt:lcidtoname_downlevel.obj
 0002:00004640       ??_C@_15FOMCIDHG@?$AAd?$AAa?$AA?$AA@ 0000000180021640     libucrt:lcidtoname_downlevel.obj
 0002:00004648       ??_C@_15NBKABECB@?$AAd?$AAe?$AA?$AA@ 0000000180021648     libucrt:lcidtoname_downlevel.obj
 0002:00004650       ??_C@_15GHPEIIAO@?$AAe?$AAl?$AA?$AA@ 0000000180021650     libucrt:lcidtoname_downlevel.obj
 0002:00004658       ??_C@_15MNPNEAIF@?$AAe?$AAn?$AA?$AA@ 0000000180021658     libucrt:lcidtoname_downlevel.obj
 0002:00004660       ??_C@_15GPIOMPMH@?$AAe?$AAs?$AA?$AA@ 0000000180021660     libucrt:lcidtoname_downlevel.obj
 0002:00004668       ??_C@_15NGLOAKJC@?$AAf?$AAi?$AA?$AA@ 0000000180021668     libucrt:lcidtoname_downlevel.obj
 0002:00004670       ??_C@_15FBKGNKAM@?$AAf?$AAr?$AA?$AA@ 0000000180021670     libucrt:lcidtoname_downlevel.obj
 0002:00004678       ??_C@_15KGGCNEFK@?$AAh?$AAe?$AA?$AA@ 0000000180021678     libucrt:lcidtoname_downlevel.obj
 0002:00004680       ??_C@_15PGHLIDMF@?$AAh?$AAu?$AA?$AA@ 0000000180021680     libucrt:lcidtoname_downlevel.obj
 0002:00004688       ??_C@_15BIEMAPLM@?$AAi?$AAs?$AA?$AA@ 0000000180021688     libucrt:lcidtoname_downlevel.obj
 0002:00004690       ??_C@_15IFJLDHAF@?$AAi?$AAt?$AA?$AA@ 0000000180021690     libucrt:lcidtoname_downlevel.obj
 0002:00004698       ??_C@_15GEMIOCAG@?$AAj?$AAa?$AA?$AA@ 0000000180021698     libucrt:lcidtoname_downlevel.obj
 0002:000046a0       ??_C@_15EPELEGJA@?$AAk?$AAo?$AA?$AA@ 00000001800216a0     libucrt:lcidtoname_downlevel.obj
 0002:000046a8       ??_C@_15NDDHIMN@?$AAn?$AAl?$AA?$AA@ 00000001800216a8     libucrt:lcidtoname_downlevel.obj
 0002:000046b0       ??_C@_15BPIGNHCD@?$AAn?$AAo?$AA?$AA@ 00000001800216b0     libucrt:lcidtoname_downlevel.obj
 0002:000046b8       ??_C@_15DEOPBLCG@?$AAp?$AAl?$AA?$AA@ 00000001800216b8     libucrt:lcidtoname_downlevel.obj
 0002:000046c0       ??_C@_15KBECGEFG@?$AAp?$AAt?$AA?$AA@ 00000001800216c0     libucrt:lcidtoname_downlevel.obj
 0002:000046c8       ??_C@_15GLJCBFMD@?$AAr?$AAo?$AA?$AA@ 00000001800216c8     libucrt:lcidtoname_downlevel.obj
 0002:000046d0       ??_C@_15FEDGKCDI@?$AAr?$AAu?$AA?$AA@ 00000001800216d0     libucrt:lcidtoname_downlevel.obj
 0002:000046d8       ??_C@_15GLKMLLHM@?$AAh?$AAr?$AA?$AA@ 00000001800216d8     libucrt:lcidtoname_downlevel.obj
 0002:000046e0       ??_C@_15CPKMFBDB@?$AAs?$AAk?$AA?$AA@ 00000001800216e0     libucrt:lcidtoname_downlevel.obj
 0002:000046e8       ??_C@_15BAAIOGMK@?$AAs?$AAq?$AA?$AA@ 00000001800216e8     libucrt:lcidtoname_downlevel.obj
 0002:000046f0       ??_C@_15INNPNOHD@?$AAs?$AAv?$AA?$AA@ 00000001800216f0     libucrt:lcidtoname_downlevel.obj
 0002:000046f8       ??_C@_15CABMMOGH@?$AAt?$AAh?$AA?$AA@ 00000001800216f8     libucrt:lcidtoname_downlevel.obj
 0002:00004700       ??_C@_15BPLIHJJM@?$AAt?$AAr?$AA?$AA@ 0000000180021700     libucrt:lcidtoname_downlevel.obj
 0002:00004708       ??_C@_15NEOEKKDJ@?$AAu?$AAr?$AA?$AA@ 0000000180021708     libucrt:lcidtoname_downlevel.obj
 0002:00004710       ??_C@_15NFICGAJK@?$AAi?$AAd?$AA?$AA@ 0000000180021710     libucrt:lcidtoname_downlevel.obj
 0002:00004718       ??_C@_15HPJPHDM@?$AAb?$AAe?$AA?$AA@ 0000000180021718     libucrt:lcidtoname_downlevel.obj
 0002:00004720       ??_C@_15LCHLGJII@?$AAs?$AAl?$AA?$AA@ 0000000180021720     libucrt:lcidtoname_downlevel.obj
 0002:00004728       ??_C@_15PCFJPHHO@?$AAe?$AAt?$AA?$AA@ 0000000180021728     libucrt:lcidtoname_downlevel.obj
 0002:00004730       ??_C@_15HPFPGODN@?$AAl?$AAv?$AA?$AA@ 0000000180021730     libucrt:lcidtoname_downlevel.obj
 0002:00004738       ??_C@_15NFFGKGLG@?$AAl?$AAt?$AA?$AA@ 0000000180021738     libucrt:lcidtoname_downlevel.obj
 0002:00004740       ??_C@_15BDAKCCHN@?$AAf?$AAa?$AA?$AA@ 0000000180021740     libucrt:lcidtoname_downlevel.obj
 0002:00004748       ??_C@_15NFGIAIAJ@?$AAv?$AAi?$AA?$AA@ 0000000180021748     libucrt:lcidtoname_downlevel.obj
 0002:00004750       ??_C@_15LMKNDMHN@?$AAh?$AAy?$AA?$AA@ 0000000180021750     libucrt:lcidtoname_downlevel.obj
 0002:00004758       ??_C@_15IJBHMCFL@?$AAa?$AAz?$AA?$AA@ 0000000180021758     libucrt:lcidtoname_downlevel.obj
 0002:00004760       ??_C@_15EKOFJABL@?$AAe?$AAu?$AA?$AA@ 0000000180021760     libucrt:lcidtoname_downlevel.obj
 0002:00004768       ??_C@_15BGHADCNK@?$AAm?$AAk?$AA?$AA@ 0000000180021768     libucrt:lcidtoname_downlevel.obj
 0002:00004770       ??_C@_15JDNICKHM@?$AAa?$AAf?$AA?$AA@ 0000000180021770     libucrt:lcidtoname_downlevel.obj
 0002:00004778       ??_C@_15KPJEDBKD@?$AAk?$AAa?$AA?$AA@ 0000000180021778     libucrt:lcidtoname_downlevel.obj
 0002:00004780       ??_C@_15PDNFFFEO@?$AAf?$AAo?$AA?$AA@ 0000000180021780     libucrt:lcidtoname_downlevel.obj
 0002:00004788       ??_C@_15OMLEGLOC@?$AAh?$AAi?$AA?$AA@ 0000000180021788     libucrt:lcidtoname_downlevel.obj
 0002:00004790       ??_C@_15IDNNENKK@?$AAm?$AAs?$AA?$AA@ 0000000180021790     libucrt:lcidtoname_downlevel.obj
 0002:00004798       ??_C@_15MACJNBMH@?$AAk?$AAk?$AA?$AA@ 0000000180021798     libucrt:lcidtoname_downlevel.obj
 0002:000047a0       ??_C@_15DKDJEOND@?$AAk?$AAy?$AA?$AA@ 00000001800217a0     libucrt:lcidtoname_downlevel.obj
 0002:000047a8       ??_C@_15DFGDLJBG@?$AAs?$AAw?$AA?$AA@ 00000001800217a8     libucrt:lcidtoname_downlevel.obj
 0002:000047b0       ??_C@_15BBFAICNG@?$AAu?$AAz?$AA?$AA@ 00000001800217b0     libucrt:lcidtoname_downlevel.obj
 0002:000047b8       ??_C@_15DKNDCGEA@?$AAt?$AAt?$AA?$AA@ 00000001800217b8     libucrt:lcidtoname_downlevel.obj
 0002:000047c0       ??_C@_15MGIFMDPL@?$AAp?$AAa?$AA?$AA@ 00000001800217c0     libucrt:lcidtoname_downlevel.obj
 0002:000047c8       ??_C@_15HCNDBBA@?$AAg?$AAu?$AA?$AA@ 00000001800217c8     libucrt:lcidtoname_downlevel.obj
 0002:000047d0       ??_C@_15FNBEIBON@?$AAt?$AAa?$AA?$AA@ 00000001800217d0     libucrt:lcidtoname_downlevel.obj
 0002:000047d8       ??_C@_15NCHGBGLK@?$AAt?$AAe?$AA?$AA@ 00000001800217d8     libucrt:lcidtoname_downlevel.obj
 0002:000047e0       ??_C@_15PHPHCBPF@?$AAk?$AAn?$AA?$AA@ 00000001800217e0     libucrt:lcidtoname_downlevel.obj
 0002:000047e8       ??_C@_15DLGBCKMP@?$AAm?$AAr?$AA?$AA@ 00000001800217e8     libucrt:lcidtoname_downlevel.obj
 0002:000047f0       ??_C@_15EABBLBFF@?$AAs?$AAa?$AA?$AA@ 00000001800217f0     libucrt:lcidtoname_downlevel.obj
 0002:000047f8       ??_C@_15CBKOMCOI@?$AAm?$AAn?$AA?$AA@ 00000001800217f8     libucrt:lcidtoname_downlevel.obj
 0002:00004800       ??_C@_15CKDMCJAF@?$AAg?$AAl?$AA?$AA@ 0000000180021800     libucrt:lcidtoname_downlevel.obj
 0002:00004808       ??_C@_17CNJFBPG@?$AAk?$AAo?$AAk?$AA?$AA@ 0000000180021808     libucrt:lcidtoname_downlevel.obj
 0002:00004810       ??_C@_17FFBJICPL@?$AAs?$AAy?$AAr?$AA?$AA@ 0000000180021810     libucrt:lcidtoname_downlevel.obj
 0002:00004818       ??_C@_17KPNDCPAF@?$AAd?$AAi?$AAv?$AA?$AA@ 0000000180021818     libucrt:lcidtoname_downlevel.obj
 0002:00004820       ??_C@_11LOCGONAA@?$AA?$AA@ 0000000180021820     libucrt:lcidtoname_downlevel.obj
 0002:00004828       ??_C@_1M@OKAHONE@?$AAa?$AAr?$AA?9?$AAS?$AAA?$AA?$AA@ 0000000180021828     libucrt:lcidtoname_downlevel.obj
 0002:00004838       ??_C@_1M@FFFIGIGK@?$AAb?$AAg?$AA?9?$AAB?$AAG?$AA?$AA@ 0000000180021838     libucrt:lcidtoname_downlevel.obj
 0002:00004848       ??_C@_1M@BJNKEDC@?$AAc?$AAa?$AA?9?$AAE?$AAS?$AA?$AA@ 0000000180021848     libucrt:lcidtoname_downlevel.obj
 0002:00004858       ??_C@_1M@IJJHFJHA@?$AAc?$AAs?$AA?9?$AAC?$AAZ?$AA?$AA@ 0000000180021858     libucrt:lcidtoname_downlevel.obj
 0002:00004868       ??_C@_1M@CLPEOBGI@?$AAd?$AAa?$AA?9?$AAD?$AAK?$AA?$AA@ 0000000180021868     libucrt:lcidtoname_downlevel.obj
 0002:00004878       ??_C@_1M@MCMADGCB@?$AAd?$AAe?$AA?9?$AAD?$AAE?$AA?$AA@ 0000000180021878     libucrt:lcidtoname_downlevel.obj
 0002:00004888       ??_C@_1M@OOCKEMAM@?$AAe?$AAl?$AA?9?$AAG?$AAR?$AA?$AA@ 0000000180021888     libucrt:lcidtoname_downlevel.obj
 0002:00004898       ??_C@_1M@DDNJFGID@?$AAf?$AAi?$AA?9?$AAF?$AAI?$AA?$AA@ 0000000180021898     libucrt:lcidtoname_downlevel.obj
 0002:000048a8       ??_C@_1M@GLIPPMAC@?$AAf?$AAr?$AA?9?$AAF?$AAR?$AA?$AA@ 00000001800218a8     libucrt:lcidtoname_downlevel.obj
 0002:000048b8       ??_C@_1M@GFMCHPE@?$AAh?$AAe?$AA?9?$AAI?$AAL?$AA?$AA@ 00000001800218b8     libucrt:lcidtoname_downlevel.obj
 0002:000048c8       ??_C@_1M@MHLPGNKM@?$AAh?$AAu?$AA?9?$AAH?$AAU?$AA?$AA@ 00000001800218c8     libucrt:lcidtoname_downlevel.obj
 0002:000048d8       ??_C@_1M@LPDDNNPN@?$AAi?$AAs?$AA?9?$AAI?$AAS?$AA?$AA@ 00000001800218d8     libucrt:lcidtoname_downlevel.obj
 0002:000048e8       ??_C@_1M@MADIPODN@?$AAi?$AAt?$AA?9?$AAI?$AAT?$AA?$AA@ 00000001800218e8     libucrt:lcidtoname_downlevel.obj
 0002:000048f8       ??_C@_1M@IHBJJGG@?$AAn?$AAl?$AA?9?$AAN?$AAL?$AA?$AA@ 00000001800218f8     libucrt:lcidtoname_downlevel.obj
 0002:00004908       ??_C@_1M@EANAGDL@?$AAn?$AAb?$AA?9?$AAN?$AAO?$AA?$AA@ 0000000180021908     libucrt:lcidtoname_downlevel.obj
 0002:00004918       ??_C@_1M@NEIEMEGP@?$AAp?$AAl?$AA?9?$AAP?$AAL?$AA?$AA@ 0000000180021918     libucrt:lcidtoname_downlevel.obj
 0002:00004928       ??_C@_1M@BOCFIGEP@?$AAp?$AAt?$AA?9?$AAB?$AAR?$AA?$AA@ 0000000180021928     libucrt:lcidtoname_downlevel.obj
 0002:00004938       ??_C@_1M@IMPFOPBG@?$AAr?$AAo?$AA?9?$AAR?$AAO?$AA?$AA@ 0000000180021938     libucrt:lcidtoname_downlevel.obj
 0002:00004948       ??_C@_1M@IDNNEJMM@?$AAr?$AAu?$AA?9?$AAR?$AAU?$AA?$AA@ 0000000180021948     libucrt:lcidtoname_downlevel.obj
 0002:00004958       ??_C@_1M@LILEEOGM@?$AAh?$AAr?$AA?9?$AAH?$AAR?$AA?$AA@ 0000000180021958     libucrt:lcidtoname_downlevel.obj
 0002:00004968       ??_C@_1M@FKIFEHPB@?$AAs?$AAk?$AA?9?$AAS?$AAK?$AA?$AA@ 0000000180021968     libucrt:lcidtoname_downlevel.obj
 0002:00004978       ??_C@_1M@LJMAMNPJ@?$AAs?$AAq?$AA?9?$AAA?$AAL?$AA?$AA@ 0000000180021978     libucrt:lcidtoname_downlevel.obj
 0002:00004988       ??_C@_1M@GIAKDKJK@?$AAs?$AAv?$AA?9?$AAS?$AAE?$AA?$AA@ 0000000180021988     libucrt:lcidtoname_downlevel.obj
 0002:00004998       ??_C@_1M@MKJKIKCL@?$AAt?$AAh?$AA?9?$AAT?$AAH?$AA?$AA@ 0000000180021998     libucrt:lcidtoname_downlevel.obj
 0002:000049a8       ??_C@_1M@MFLCCMPB@?$AAt?$AAr?$AA?9?$AAT?$AAR?$AA?$AA@ 00000001800219a8     libucrt:lcidtoname_downlevel.obj
 0002:000049b8       ??_C@_1M@OIJHDKJN@?$AAu?$AAr?$AA?9?$AAP?$AAK?$AA?$AA@ 00000001800219b8     libucrt:lcidtoname_downlevel.obj
 0002:000049c8       ??_C@_1M@LHIPCIEK@?$AAi?$AAd?$AA?9?$AAI?$AAD?$AA?$AA@ 00000001800219c8     libucrt:lcidtoname_downlevel.obj
 0002:000049d8       ??_C@_1M@MFMOBGI@?$AAu?$AAk?$AA?9?$AAU?$AAA?$AA?$AA@ 00000001800219d8     libucrt:lcidtoname_downlevel.obj
 0002:000049e8       ??_C@_1M@OBGLJIPL@?$AAb?$AAe?$AA?9?$AAB?$AAY?$AA?$AA@ 00000001800219e8     libucrt:lcidtoname_downlevel.obj
 0002:000049f8       ??_C@_1M@BCFAJEAD@?$AAs?$AAl?$AA?9?$AAS?$AAI?$AA?$AA@ 00000001800219f8     libucrt:lcidtoname_downlevel.obj
 0002:00004a08       ??_C@_1M@FKFFEDDN@?$AAe?$AAt?$AA?9?$AAE?$AAE?$AA?$AA@ 0000000180021a08     libucrt:lcidtoname_downlevel.obj
 0002:00004a18       ??_C@_1M@KGKKAACI@?$AAl?$AAv?$AA?9?$AAL?$AAV?$AA?$AA@ 0000000180021a18     libucrt:lcidtoname_downlevel.obj
 0002:00004a28       ??_C@_1M@IFGBIJO@?$AAl?$AAt?$AA?9?$AAL?$AAT?$AA?$AA@ 0000000180021a28     libucrt:lcidtoname_downlevel.obj
 0002:00004a38       ??_C@_1M@FGEAHEDM@?$AAf?$AAa?$AA?9?$AAI?$AAR?$AA?$AA@ 0000000180021a38     libucrt:lcidtoname_downlevel.obj
 0002:00004a48       ??_C@_1M@KBMAIBFN@?$AAv?$AAi?$AA?9?$AAV?$AAN?$AA?$AA@ 0000000180021a48     libucrt:lcidtoname_downlevel.obj
 0002:00004a58       ??_C@_1M@GPCBKDJK@?$AAh?$AAy?$AA?9?$AAA?$AAM?$AA?$AA@ 0000000180021a58     libucrt:lcidtoname_downlevel.obj
 0002:00004a68       ??_C@_1BG@BECMDDJB@?$AAa?$AAz?$AA?9?$AAA?$AAZ?$AA?9?$AAL?$AAa?$AAt?$AAn?$AA?$AA@ 0000000180021a68     libucrt:lcidtoname_downlevel.obj
 0002:00004a80       ??_C@_1M@MAOFCAEA@?$AAe?$AAu?$AA?9?$AAE?$AAS?$AA?$AA@ 0000000180021a80     libucrt:lcidtoname_downlevel.obj
 0002:00004a90       ??_C@_1M@IGHABKPI@?$AAm?$AAk?$AA?9?$AAM?$AAK?$AA?$AA@ 0000000180021a90     libucrt:lcidtoname_downlevel.obj
 0002:00004aa0       ??_C@_1M@IAIGNEJG@?$AAt?$AAn?$AA?9?$AAZ?$AAA?$AA?$AA@ 0000000180021aa0     libucrt:lcidtoname_downlevel.obj
 0002:00004ab0       ??_C@_1M@IIJCOJFA@?$AAx?$AAh?$AA?9?$AAZ?$AAA?$AA?$AA@ 0000000180021ab0     libucrt:lcidtoname_downlevel.obj
 0002:00004ac0       ??_C@_1M@LGPJHNJH@?$AAz?$AAu?$AA?9?$AAZ?$AAA?$AA?$AA@ 0000000180021ac0     libucrt:lcidtoname_downlevel.obj
 0002:00004ad0       ??_C@_1M@HOKAOIO@?$AAa?$AAf?$AA?9?$AAZ?$AAA?$AA?$AA@ 0000000180021ad0     libucrt:lcidtoname_downlevel.obj
 0002:00004ae0       ??_C@_1M@DPCLHLIE@?$AAk?$AAa?$AA?9?$AAG?$AAE?$AA?$AA@ 0000000180021ae0     libucrt:lcidtoname_downlevel.obj
 0002:00004af0       ??_C@_1M@BLKMHJBI@?$AAf?$AAo?$AA?9?$AAF?$AAO?$AA?$AA@ 0000000180021af0     libucrt:lcidtoname_downlevel.obj
 0002:00004b00       ??_C@_1M@LGGJAPPB@?$AAh?$AAi?$AA?9?$AAI?$AAN?$AA?$AA@ 0000000180021b00     libucrt:lcidtoname_downlevel.obj
 0002:00004b10       ??_C@_1M@FIKPIHFE@?$AAm?$AAt?$AA?9?$AAM?$AAT?$AA?$AA@ 0000000180021b10     libucrt:lcidtoname_downlevel.obj
 0002:00004b20       ??_C@_1M@HEGGPBFA@?$AAs?$AAe?$AA?9?$AAN?$AAO?$AA?$AA@ 0000000180021b20     libucrt:lcidtoname_downlevel.obj
 0002:00004b30       ??_C@_1M@EIBJEEPA@?$AAm?$AAs?$AA?9?$AAM?$AAY?$AA?$AA@ 0000000180021b30     libucrt:lcidtoname_downlevel.obj
 0002:00004b40       ??_C@_1M@FHLBGMPP@?$AAk?$AAk?$AA?9?$AAK?$AAZ?$AA?$AA@ 0000000180021b40     libucrt:lcidtoname_downlevel.obj
 0002:00004b50       ??_C@_1M@NGJJLCGI@?$AAk?$AAy?$AA?9?$AAK?$AAG?$AA?$AA@ 0000000180021b50     libucrt:lcidtoname_downlevel.obj
 0002:00004b60       ??_C@_1M@GIENNBFC@?$AAs?$AAw?$AA?9?$AAK?$AAE?$AA?$AA@ 0000000180021b60     libucrt:lcidtoname_downlevel.obj
 0002:00004b70       ??_C@_1BG@NDGMJIMJ@?$AAu?$AAz?$AA?9?$AAU?$AAZ?$AA?9?$AAL?$AAa?$AAt?$AAn?$AA?$AA@ 0000000180021b70     libucrt:lcidtoname_downlevel.obj
 0002:00004b88       ??_C@_1M@IDCCIHBC@?$AAt?$AAt?$AA?9?$AAR?$AAU?$AA?$AA@ 0000000180021b88     libucrt:lcidtoname_downlevel.obj
 0002:00004b98       ??_C@_1M@LOICPMOJ@?$AAb?$AAn?$AA?9?$AAI?$AAN?$AA?$AA@ 0000000180021b98     libucrt:lcidtoname_downlevel.obj
 0002:00004ba8       ??_C@_1M@KPKKNEAH@?$AAp?$AAa?$AA?9?$AAI?$AAN?$AA?$AA@ 0000000180021ba8     libucrt:lcidtoname_downlevel.obj
 0002:00004bb8       ??_C@_1M@PJGPPBOG@?$AAg?$AAu?$AA?9?$AAI?$AAN?$AA?$AA@ 0000000180021bb8     libucrt:lcidtoname_downlevel.obj
 0002:00004bc8       ??_C@_1M@KMKMOPHI@?$AAt?$AAa?$AA?9?$AAI?$AAN?$AA?$AA@ 0000000180021bc8     libucrt:lcidtoname_downlevel.obj
 0002:00004bd8       ??_C@_1M@KFEHEPAC@?$AAt?$AAe?$AA?9?$AAI?$AAN?$AA?$AA@ 0000000180021bd8     libucrt:lcidtoname_downlevel.obj
 0002:00004be8       ??_C@_1M@CDCLMGHI@?$AAk?$AAn?$AA?9?$AAI?$AAN?$AA?$AA@ 0000000180021be8     libucrt:lcidtoname_downlevel.obj
 0002:00004bf8       ??_C@_1M@MIODLDKF@?$AAm?$AAl?$AA?9?$AAI?$AAN?$AA?$AA@ 0000000180021bf8     libucrt:lcidtoname_downlevel.obj
 0002:00004c08       ??_C@_1M@PBIEACPO@?$AAm?$AAr?$AA?9?$AAI?$AAN?$AA?$AA@ 0000000180021c08     libucrt:lcidtoname_downlevel.obj
 0002:00004c18       ??_C@_1M@NIDEAGPH@?$AAs?$AAa?$AA?9?$AAI?$AAN?$AA?$AA@ 0000000180021c18     libucrt:lcidtoname_downlevel.obj
 0002:00004c28       ??_C@_1M@FHIHCBIO@?$AAm?$AAn?$AA?9?$AAM?$AAN?$AA?$AA@ 0000000180021c28     libucrt:lcidtoname_downlevel.obj
 0002:00004c38       ??_C@_1M@JAIJPENP@?$AAc?$AAy?$AA?9?$AAG?$AAB?$AA?$AA@ 0000000180021c38     libucrt:lcidtoname_downlevel.obj
 0002:00004c48       ??_C@_1M@PHGFBEPN@?$AAg?$AAl?$AA?9?$AAE?$AAS?$AA?$AA@ 0000000180021c48     libucrt:lcidtoname_downlevel.obj
 0002:00004c58       ??_C@_1O@KPIPDNCP@?$AAk?$AAo?$AAk?$AA?9?$AAI?$AAN?$AA?$AA@ 0000000180021c58     libucrt:lcidtoname_downlevel.obj
 0002:00004c68       ??_C@_1O@KNHJLDJA@?$AAs?$AAy?$AAr?$AA?9?$AAS?$AAY?$AA?$AA@ 0000000180021c68     libucrt:lcidtoname_downlevel.obj
 0002:00004c78       ??_C@_1O@MKEKBLAH@?$AAd?$AAi?$AAv?$AA?9?$AAM?$AAV?$AA?$AA@ 0000000180021c78     libucrt:lcidtoname_downlevel.obj
 0002:00004c88       ??_C@_1O@OHDCKDDF@?$AAq?$AAu?$AAz?$AA?9?$AAB?$AAO?$AA?$AA@ 0000000180021c88     libucrt:lcidtoname_downlevel.obj
 0002:00004c98       ??_C@_1M@LEPJNLFD@?$AAn?$AAs?$AA?9?$AAZ?$AAA?$AA?$AA@ 0000000180021c98     libucrt:lcidtoname_downlevel.obj
 0002:00004ca8       ??_C@_1M@OMLEIIJB@?$AAm?$AAi?$AA?9?$AAN?$AAZ?$AA?$AA@ 0000000180021ca8     libucrt:lcidtoname_downlevel.obj
 0002:00004cb8       ??_C@_1M@PMPEAILG@?$AAa?$AAr?$AA?9?$AAI?$AAQ?$AA?$AA@ 0000000180021cb8     libucrt:lcidtoname_downlevel.obj
 0002:00004cc8       ??_C@_1M@CNKPNOEE@?$AAd?$AAe?$AA?9?$AAC?$AAH?$AA?$AA@ 0000000180021cc8     libucrt:lcidtoname_downlevel.obj
 0002:00004cd8       ??_C@_1M@LKMGMLKO@?$AAe?$AAn?$AA?9?$AAG?$AAB?$AA?$AA@ 0000000180021cd8     libucrt:lcidtoname_downlevel.obj
 0002:00004ce8       ??_C@_1M@PGKJFFGL@?$AAe?$AAs?$AA?9?$AAM?$AAX?$AA?$AA@ 0000000180021ce8     libucrt:lcidtoname_downlevel.obj
 0002:00004cf8       ??_C@_1M@DNNANBDC@?$AAf?$AAr?$AA?9?$AAB?$AAE?$AA?$AA@ 0000000180021cf8     libucrt:lcidtoname_downlevel.obj
 0002:00004d08       ??_C@_1M@HLGMDFHM@?$AAi?$AAt?$AA?9?$AAC?$AAH?$AA?$AA@ 0000000180021d08     libucrt:lcidtoname_downlevel.obj
 0002:00004d18       ??_C@_1M@CLLBGJH@?$AAn?$AAl?$AA?9?$AAB?$AAE?$AA?$AA@ 0000000180021d18     libucrt:lcidtoname_downlevel.obj
 0002:00004d28       ??_C@_1M@BODBOGLF@?$AAn?$AAn?$AA?9?$AAN?$AAO?$AA?$AA@ 0000000180021d28     libucrt:lcidtoname_downlevel.obj
 0002:00004d38       ??_C@_1M@HFFAHKAD@?$AAp?$AAt?$AA?9?$AAP?$AAT?$AA?$AA@ 0000000180021d38     libucrt:lcidtoname_downlevel.obj
 0002:00004d48       ??_C@_1BG@LNOAKHIE@?$AAs?$AAr?$AA?9?$AAS?$AAP?$AA?9?$AAL?$AAa?$AAt?$AAn?$AA?$AA@ 0000000180021d48     libucrt:lcidtoname_downlevel.obj
 0002:00004d60       ??_C@_1M@HBMHBGAK@?$AAs?$AAv?$AA?9?$AAF?$AAI?$AA?$AA@ 0000000180021d60     libucrt:lcidtoname_downlevel.obj
 0002:00004d70       ??_C@_1BG@DGCJGJBE@?$AAa?$AAz?$AA?9?$AAA?$AAZ?$AA?9?$AAC?$AAy?$AAr?$AAl?$AA?$AA@ 0000000180021d70     libucrt:lcidtoname_downlevel.obj
 0002:00004d88       ??_C@_1M@KEJDAAHB@?$AAs?$AAe?$AA?9?$AAS?$AAE?$AA?$AA@ 0000000180021d88     libucrt:lcidtoname_downlevel.obj
 0002:00004d98       ??_C@_1M@HEIBJJAD@?$AAm?$AAs?$AA?9?$AAB?$AAN?$AA?$AA@ 0000000180021d98     libucrt:lcidtoname_downlevel.obj
 0002:00004da8       ??_C@_1BG@PBGJMCEM@?$AAu?$AAz?$AA?9?$AAU?$AAZ?$AA?9?$AAC?$AAy?$AAr?$AAl?$AA?$AA@ 0000000180021da8     libucrt:lcidtoname_downlevel.obj
 0002:00004dc0       ??_C@_1O@LAOBCMDF@?$AAq?$AAu?$AAz?$AA?9?$AAE?$AAC?$AA?$AA@ 0000000180021dc0     libucrt:lcidtoname_downlevel.obj
 0002:00004dd0       ??_C@_1M@POEEMAIO@?$AAa?$AAr?$AA?9?$AAE?$AAG?$AA?$AA@ 0000000180021dd0     libucrt:lcidtoname_downlevel.obj
 0002:00004de0       ??_C@_1M@EFAKDEDL@?$AAz?$AAh?$AA?9?$AAH?$AAK?$AA?$AA@ 0000000180021de0     libucrt:lcidtoname_downlevel.obj
 0002:00004df0       ??_C@_1M@HKKIJHGI@?$AAd?$AAe?$AA?9?$AAA?$AAT?$AA?$AA@ 0000000180021df0     libucrt:lcidtoname_downlevel.obj
 0002:00004e00       ??_C@_1M@KBFBEHJF@?$AAe?$AAn?$AA?9?$AAA?$AAU?$AA?$AA@ 0000000180021e00     libucrt:lcidtoname_downlevel.obj
 0002:00004e10       ??_C@_1M@MNPLFAAH@?$AAe?$AAs?$AA?9?$AAE?$AAS?$AA?$AA@ 0000000180021e10     libucrt:lcidtoname_downlevel.obj
 0002:00004e20       ??_C@_1M@HJOOJFMA@?$AAf?$AAr?$AA?9?$AAC?$AAA?$AA?$AA@ 0000000180021e20     libucrt:lcidtoname_downlevel.obj
 0002:00004e30       ??_C@_1BG@JPOFPNAB@?$AAs?$AAr?$AA?9?$AAS?$AAP?$AA?9?$AAC?$AAy?$AAr?$AAl?$AA?$AA@ 0000000180021e30     libucrt:lcidtoname_downlevel.obj
 0002:00004e48       ??_C@_1M@LNFOCMOB@?$AAs?$AAe?$AA?9?$AAF?$AAI?$AA?$AA@ 0000000180021e48     libucrt:lcidtoname_downlevel.obj
 0002:00004e58       ??_C@_1O@MGJBOAMB@?$AAq?$AAu?$AAz?$AA?9?$AAP?$AAE?$AA?$AA@ 0000000180021e58     libucrt:lcidtoname_downlevel.obj
 0002:00004e68       ??_C@_1M@GJINLBOK@?$AAa?$AAr?$AA?9?$AAL?$AAY?$AA?$AA@ 0000000180021e68     libucrt:lcidtoname_downlevel.obj
 0002:00004e78       ??_C@_1M@GGMNHJNL@?$AAz?$AAh?$AA?9?$AAS?$AAG?$AA?$AA@ 0000000180021e78     libucrt:lcidtoname_downlevel.obj
 0002:00004e88       ??_C@_1M@HOIKODND@?$AAd?$AAe?$AA?9?$AAL?$AAU?$AA?$AA@ 0000000180021e88     libucrt:lcidtoname_downlevel.obj
 0002:00004e98       ??_C@_1M@DDOCCGFG@?$AAe?$AAn?$AA?9?$AAC?$AAA?$AA?$AA@ 0000000180021e98     libucrt:lcidtoname_downlevel.obj
 0002:00004ea8       ??_C@_1M@BNOEMJLF@?$AAe?$AAs?$AA?9?$AAG?$AAT?$AA?$AA@ 0000000180021ea8     libucrt:lcidtoname_downlevel.obj
 0002:00004eb8       ??_C@_1M@EOGNKEK@?$AAf?$AAr?$AA?9?$AAC?$AAH?$AA?$AA@ 0000000180021eb8     libucrt:lcidtoname_downlevel.obj
 0002:00004ec8       ??_C@_1M@FLIDJFHL@?$AAh?$AAr?$AA?9?$AAB?$AAA?$AA?$AA@ 0000000180021ec8     libucrt:lcidtoname_downlevel.obj
 0002:00004ed8       ??_C@_1O@FMCELNAJ@?$AAs?$AAm?$AAj?$AA?9?$AAN?$AAO?$AA?$AA@ 0000000180021ed8     libucrt:lcidtoname_downlevel.obj
 0002:00004ee8       ??_C@_1M@JHGLJMGJ@?$AAa?$AAr?$AA?9?$AAD?$AAZ?$AA?$AA@ 0000000180021ee8     libucrt:lcidtoname_downlevel.obj
 0002:00004ef8       ??_C@_1M@JKKFDCNP@?$AAz?$AAh?$AA?9?$AAM?$AAO?$AA?$AA@ 0000000180021ef8     libucrt:lcidtoname_downlevel.obj
 0002:00004f08       ??_C@_1M@GEEFALPE@?$AAd?$AAe?$AA?9?$AAL?$AAI?$AA?$AA@ 0000000180021f08     libucrt:lcidtoname_downlevel.obj
 0002:00004f18       ??_C@_1M@IGEOFBG@?$AAe?$AAn?$AA?9?$AAN?$AAZ?$AA?$AA@ 0000000180021f18     libucrt:lcidtoname_downlevel.obj
 0002:00004f28       ??_C@_1M@KDBONEHP@?$AAe?$AAs?$AA?9?$AAC?$AAR?$AA?$AA@ 0000000180021f28     libucrt:lcidtoname_downlevel.obj
 0002:00004f38       ??_C@_1M@FHMDOHNN@?$AAf?$AAr?$AA?9?$AAL?$AAU?$AA?$AA@ 0000000180021f38     libucrt:lcidtoname_downlevel.obj
 0002:00004f48       ??_C@_1BG@NFKKMAFG@?$AAb?$AAs?$AA?9?$AAB?$AAA?$AA?9?$AAL?$AAa?$AAt?$AAn?$AA?$AA@ 0000000180021f48     libucrt:lcidtoname_downlevel.obj
 0002:00004f60       ??_C@_1O@IMNBEMCI@?$AAs?$AAm?$AAj?$AA?9?$AAS?$AAE?$AA?$AA@ 0000000180021f60     libucrt:lcidtoname_downlevel.obj
 0002:00004f70       ??_C@_1M@DHHMBNDP@?$AAa?$AAr?$AA?9?$AAM?$AAA?$AA?$AA@ 0000000180021f70     libucrt:lcidtoname_downlevel.obj
 0002:00004f80       ??_C@_1M@BNBLJCGH@?$AAe?$AAn?$AA?9?$AAI?$AAE?$AA?$AA@ 0000000180021f80     libucrt:lcidtoname_downlevel.obj
 0002:00004f90       ??_C@_1M@GEPAFMDL@?$AAe?$AAs?$AA?9?$AAP?$AAA?$AA?$AA@ 0000000180021f90     libucrt:lcidtoname_downlevel.obj
 0002:00004fa0       ??_C@_1M@OJONDMDL@?$AAf?$AAr?$AA?9?$AAM?$AAC?$AA?$AA@ 0000000180021fa0     libucrt:lcidtoname_downlevel.obj
 0002:00004fb0       ??_C@_1BG@OBCNFJB@?$AAs?$AAr?$AA?9?$AAB?$AAA?$AA?9?$AAL?$AAa?$AAt?$AAn?$AA?$AA@ 0000000180021fb0     libucrt:lcidtoname_downlevel.obj
 0002:00004fc8       ??_C@_1O@KEMEEGPO@?$AAs?$AAm?$AAa?$AA?9?$AAN?$AAO?$AA?$AA@ 0000000180021fc8     libucrt:lcidtoname_downlevel.obj
 0002:00004fd8       ??_C@_1M@ELMGFODK@?$AAa?$AAr?$AA?9?$AAT?$AAN?$AA?$AA@ 0000000180021fd8     libucrt:lcidtoname_downlevel.obj
 0002:00004fe8       ??_C@_1M@BHDLHFAF@?$AAe?$AAn?$AA?9?$AAZ?$AAA?$AA?$AA@ 0000000180021fe8     libucrt:lcidtoname_downlevel.obj
 0002:00004ff8       ??_C@_1M@BMGIGLIF@?$AAe?$AAs?$AA?9?$AAD?$AAO?$AA?$AA@ 0000000180021ff8     libucrt:lcidtoname_downlevel.obj
 0002:00005008       ??_C@_1BG@CMBHIPBE@?$AAs?$AAr?$AA?9?$AAB?$AAA?$AA?9?$AAC?$AAy?$AAr?$AAl?$AA?$AA@ 0000000180022008     libucrt:lcidtoname_downlevel.obj
 0002:00005020       ??_C@_1O@HEDBLHNP@?$AAs?$AAm?$AAa?$AA?9?$AAS?$AAE?$AA?$AA@ 0000000180022020     libucrt:lcidtoname_downlevel.obj
 0002:00005030       ??_C@_1M@DAGCADIM@?$AAa?$AAr?$AA?9?$AAO?$AAM?$AA?$AA@ 0000000180022030     libucrt:lcidtoname_downlevel.obj
 0002:00005040       ??_C@_1M@FODLMICG@?$AAe?$AAn?$AA?9?$AAJ?$AAM?$AA?$AA@ 0000000180022040     libucrt:lcidtoname_downlevel.obj
 0002:00005050       ??_C@_1M@DNMLCIHB@?$AAe?$AAs?$AA?9?$AAV?$AAE?$AA?$AA@ 0000000180022050     libucrt:lcidtoname_downlevel.obj
 0002:00005060       ??_C@_1O@EOKHMKJK@?$AAs?$AAm?$AAs?$AA?9?$AAF?$AAI?$AA?$AA@ 0000000180022060     libucrt:lcidtoname_downlevel.obj
 0002:00005070       ??_C@_1M@CAFJMKOF@?$AAa?$AAr?$AA?9?$AAY?$AAE?$AA?$AA@ 0000000180022070     libucrt:lcidtoname_downlevel.obj
 0002:00005080       ??_C@_1M@CBFHIJLI@?$AAe?$AAn?$AA?9?$AAC?$AAB?$AA?$AA@ 0000000180022080     libucrt:lcidtoname_downlevel.obj
 0002:00005090       ??_C@_1M@BGNFLDN@?$AAe?$AAs?$AA?9?$AAC?$AAO?$AA?$AA@ 0000000180022090     libucrt:lcidtoname_downlevel.obj
 0002:000050a0       ??_C@_1O@JMPHMAMC@?$AAs?$AAm?$AAn?$AA?9?$AAF?$AAI?$AA?$AA@ 00000001800220a0     libucrt:lcidtoname_downlevel.obj
 0002:000050b0       ??_C@_1M@JLANABKE@?$AAa?$AAr?$AA?9?$AAS?$AAY?$AA?$AA@ 00000001800220b0     libucrt:lcidtoname_downlevel.obj
 0002:000050c0       ??_C@_1M@HPKGCFGN@?$AAe?$AAn?$AA?9?$AAB?$AAZ?$AA?$AA@ 00000001800220c0     libucrt:lcidtoname_downlevel.obj
 0002:000050d0       ??_C@_1M@OLJCMLGM@?$AAe?$AAs?$AA?9?$AAP?$AAE?$AA?$AA@ 00000001800220d0     libucrt:lcidtoname_downlevel.obj
 0002:000050e0       ??_C@_1M@MKKGFKLE@?$AAa?$AAr?$AA?9?$AAJ?$AAO?$AA?$AA@ 00000001800220e0     libucrt:lcidtoname_downlevel.obj
 0002:000050f0       ??_C@_1M@EKPGLDNI@?$AAe?$AAn?$AA?9?$AAT?$AAT?$AA?$AA@ 00000001800220f0     libucrt:lcidtoname_downlevel.obj
 0002:00005100       ??_C@_1M@OONGHFHE@?$AAe?$AAs?$AA?9?$AAA?$AAR?$AA?$AA@ 0000000180022100     libucrt:lcidtoname_downlevel.obj
 0002:00005110       ??_C@_1M@OOJFGBHE@?$AAa?$AAr?$AA?9?$AAL?$AAB?$AA?$AA@ 0000000180022110     libucrt:lcidtoname_downlevel.obj
 0002:00005120       ??_C@_1M@GCEJHNEG@?$AAe?$AAn?$AA?9?$AAZ?$AAW?$AA?$AA@ 0000000180022120     libucrt:lcidtoname_downlevel.obj
 0002:00005130       ??_C@_1M@JNOCAHJI@?$AAe?$AAs?$AA?9?$AAE?$AAC?$AA?$AA@ 0000000180022130     libucrt:lcidtoname_downlevel.obj
 0002:00005140       ??_C@_1M@JEFHPGGB@?$AAa?$AAr?$AA?9?$AAK?$AAW?$AA?$AA@ 0000000180022140     libucrt:lcidtoname_downlevel.obj
 0002:00005150       ??_C@_1M@MLKIBJOJ@?$AAe?$AAn?$AA?9?$AAP?$AAH?$AA?$AA@ 0000000180022150     libucrt:lcidtoname_downlevel.obj
 0002:00005160       ??_C@_1M@BDNIPEND@?$AAe?$AAs?$AA?9?$AAC?$AAL?$AA?$AA@ 0000000180022160     libucrt:lcidtoname_downlevel.obj
 0002:00005170       ??_C@_1M@MPNMEKBD@?$AAa?$AAr?$AA?9?$AAA?$AAE?$AA?$AA@ 0000000180022170     libucrt:lcidtoname_downlevel.obj
 0002:00005180       ??_C@_1M@KBJALCPI@?$AAe?$AAs?$AA?9?$AAU?$AAY?$AA?$AA@ 0000000180022180     libucrt:lcidtoname_downlevel.obj
 0002:00005190       ??_C@_1M@LLCCOAGA@?$AAa?$AAr?$AA?9?$AAB?$AAH?$AA?$AA@ 0000000180022190     libucrt:lcidtoname_downlevel.obj
 0002:000051a0       ??_C@_1M@PBFNCDEL@?$AAe?$AAs?$AA?9?$AAP?$AAY?$AA?$AA@ 00000001800221a0     libucrt:lcidtoname_downlevel.obj
 0002:000051b0       ??_C@_1M@EDGINPNP@?$AAa?$AAr?$AA?9?$AAQ?$AAA?$AA?$AA@ 00000001800221b0     libucrt:lcidtoname_downlevel.obj
 0002:000051c0       ??_C@_1M@MKDBIIJI@?$AAe?$AAs?$AA?9?$AAB?$AAO?$AA?$AA@ 00000001800221c0     libucrt:lcidtoname_downlevel.obj
 0002:000051d0       ??_C@_1M@CPKKEBLD@?$AAe?$AAs?$AA?9?$AAS?$AAV?$AA?$AA@ 00000001800221d0     libucrt:lcidtoname_downlevel.obj
 0002:000051e0       ??_C@_1M@NDBGMMJL@?$AAe?$AAs?$AA?9?$AAH?$AAN?$AA?$AA@ 00000001800221e0     libucrt:lcidtoname_downlevel.obj
 0002:000051f0       ??_C@_1M@JIJIBHDP@?$AAe?$AAs?$AA?9?$AAN?$AAI?$AA?$AA@ 00000001800221f0     libucrt:lcidtoname_downlevel.obj
 0002:00005200       ??_C@_1M@CGFMKEEK@?$AAe?$AAs?$AA?9?$AAP?$AAR?$AA?$AA@ 0000000180022200     libucrt:lcidtoname_downlevel.obj
 0002:00005210       ??_C@_1O@ICJHKIIK@?$AAz?$AAh?$AA?9?$AAC?$AAH?$AAT?$AA?$AA@ 0000000180022210     libucrt:lcidtoname_downlevel.obj
 0002:00005220       ??_C@_15CLNEJCE@?$AAs?$AAr?$AA?$AA@ 0000000180022220     libucrt:lcidtoname_downlevel.obj
 0002:00006070       ??_C@_1M@KAHEKEIG@?$AAa?$AAf?$AA?9?$AAz?$AAa?$AA?$AA@ 0000000180023070     libucrt:lcidtoname_downlevel.obj
 0002:00006080       ??_C@_1M@GIECOABL@?$AAa?$AAr?$AA?9?$AAa?$AAe?$AA?$AA@ 0000000180023080     libucrt:lcidtoname_downlevel.obj
 0002:00006090       ??_C@_1M@BMLMEKGI@?$AAa?$AAr?$AA?9?$AAb?$AAh?$AA?$AA@ 0000000180023090     libucrt:lcidtoname_downlevel.obj
 0002:000060a0       ??_C@_1M@DAPFDGGB@?$AAa?$AAr?$AA?9?$AAd?$AAz?$AA?$AA@ 00000001800230a0     libucrt:lcidtoname_downlevel.obj
 0002:000060b0       ??_C@_1M@FJNKGKIG@?$AAa?$AAr?$AA?9?$AAe?$AAg?$AA?$AA@ 00000001800230b0     libucrt:lcidtoname_downlevel.obj
 0002:000060c0       ??_C@_1M@FLGKKCLO@?$AAa?$AAr?$AA?9?$AAi?$AAq?$AA?$AA@ 00000001800230c0     libucrt:lcidtoname_downlevel.obj
 0002:000060d0       ??_C@_1M@GNDIPALM@?$AAa?$AAr?$AA?9?$AAj?$AAo?$AA?$AA@ 00000001800230d0     libucrt:lcidtoname_downlevel.obj
 0002:000060e0       ??_C@_1M@DDMJFMGJ@?$AAa?$AAr?$AA?9?$AAk?$AAw?$AA?$AA@ 00000001800230e0     libucrt:lcidtoname_downlevel.obj
 0002:000060f0       ??_C@_1M@EJALMLHM@?$AAa?$AAr?$AA?9?$AAl?$AAb?$AA?$AA@ 00000001800230f0     libucrt:lcidtoname_downlevel.obj
 0002:00006100       ??_C@_1M@MOBDBLOC@?$AAa?$AAr?$AA?9?$AAl?$AAy?$AA?$AA@ 0000000180023100     libucrt:lcidtoname_downlevel.obj
 0002:00006110       ??_C@_1M@JAOCLHDH@?$AAa?$AAr?$AA?9?$AAm?$AAa?$AA?$AA@ 0000000180023110     libucrt:lcidtoname_downlevel.obj
 0002:00006120       ??_C@_1M@JHPMKJIE@?$AAa?$AAr?$AA?9?$AAo?$AAm?$AA?$AA@ 0000000180023120     libucrt:lcidtoname_downlevel.obj
 0002:00006130       ??_C@_1M@OEPGHFNH@?$AAa?$AAr?$AA?9?$AAq?$AAa?$AA?$AA@ 0000000180023130     libucrt:lcidtoname_downlevel.obj
 0002:00006140       ??_C@_1M@KJDONENM@?$AAa?$AAr?$AA?9?$AAs?$AAa?$AA?$AA@ 0000000180023140     libucrt:lcidtoname_downlevel.obj
 0002:00006150       ??_C@_1M@DMJDKLKM@?$AAa?$AAr?$AA?9?$AAs?$AAy?$AA?$AA@ 0000000180023150     libucrt:lcidtoname_downlevel.obj
 0002:00006160       ??_C@_1M@OMFIPEDC@?$AAa?$AAr?$AA?9?$AAt?$AAn?$AA?$AA@ 0000000180023160     libucrt:lcidtoname_downlevel.obj
 0002:00006170       ??_C@_1M@IHMHGAON@?$AAa?$AAr?$AA?9?$AAy?$AAe?$AA?$AA@ 0000000180023170     libucrt:lcidtoname_downlevel.obj
 0002:00006180       ??_C@_1BG@KDCPGJGB@?$AAa?$AAz?$AA?9?$AAa?$AAz?$AA?9?$AAc?$AAy?$AAr?$AAl?$AA?$AA@ 0000000180023180     libucrt:lcidtoname_downlevel.obj
 0002:00006198       ??_C@_1BG@IBCKDDOE@?$AAa?$AAz?$AA?9?$AAa?$AAz?$AA?9?$AAl?$AAa?$AAt?$AAn?$AA?$AA@ 0000000180023198     libucrt:lcidtoname_downlevel.obj
 0002:000061b0       ??_C@_1M@EGPFDCPD@?$AAb?$AAe?$AA?9?$AAb?$AAy?$AA?$AA@ 00000001800231b0     libucrt:lcidtoname_downlevel.obj
 0002:000061c0       ??_C@_1M@PCMGMCGC@?$AAb?$AAg?$AA?9?$AAb?$AAg?$AA?$AA@ 00000001800231c0     libucrt:lcidtoname_downlevel.obj
 0002:000061d0       ??_C@_1M@BJBMFGOB@?$AAb?$AAn?$AA?9?$AAi?$AAn?$AA?$AA@ 00000001800231d0     libucrt:lcidtoname_downlevel.obj
 0002:000061e0       ??_C@_1BG@EAKMMACD@?$AAb?$AAs?$AA?9?$AAb?$AAa?$AA?9?$AAl?$AAa?$AAt?$AAn?$AA?$AA@ 00000001800231e0     libucrt:lcidtoname_downlevel.obj
 0002:000061f8       ??_C@_1M@KGADAODK@?$AAc?$AAa?$AA?9?$AAe?$AAs?$AA?$AA@ 00000001800231f8     libucrt:lcidtoname_downlevel.obj
 0002:00006208       ??_C@_1M@COAJPDHI@?$AAc?$AAs?$AA?9?$AAc?$AAz?$AA?$AA@ 0000000180023208     libucrt:lcidtoname_downlevel.obj
 0002:00006218       ??_C@_1M@DHBHFONH@?$AAc?$AAy?$AA?9?$AAg?$AAb?$AA?$AA@ 0000000180023218     libucrt:lcidtoname_downlevel.obj
 0002:00006228       ??_C@_1M@IMGKELGA@?$AAd?$AAa?$AA?9?$AAd?$AAk?$AA?$AA@ 0000000180023228     libucrt:lcidtoname_downlevel.obj
 0002:00006238       ??_C@_1M@NNDGDNGA@?$AAd?$AAe?$AA?9?$AAa?$AAt?$AA?$AA@ 0000000180023238     libucrt:lcidtoname_downlevel.obj
 0002:00006248       ??_C@_1M@IKDBHEEM@?$AAd?$AAe?$AA?9?$AAc?$AAh?$AA?$AA@ 0000000180023248     libucrt:lcidtoname_downlevel.obj
 0002:00006258       ??_C@_1M@GFFOJMCJ@?$AAd?$AAe?$AA?9?$AAd?$AAe?$AA?$AA@ 0000000180023258     libucrt:lcidtoname_downlevel.obj
 0002:00006268       ??_C@_1M@MDNLKBPM@?$AAd?$AAe?$AA?9?$AAl?$AAi?$AA?$AA@ 0000000180023268     libucrt:lcidtoname_downlevel.obj
 0002:00006278       ??_C@_1M@NJBEEJNL@?$AAd?$AAe?$AA?9?$AAl?$AAu?$AA?$AA@ 0000000180023278     libucrt:lcidtoname_downlevel.obj
 0002:00006288       ??_C@_1O@GNNELBAP@?$AAd?$AAi?$AAv?$AA?9?$AAm?$AAv?$AA?$AA@ 0000000180023288     libucrt:lcidtoname_downlevel.obj
 0002:00006298       ??_C@_1M@EJLEOGAE@?$AAe?$AAl?$AA?9?$AAg?$AAr?$AA?$AA@ 0000000180023298     libucrt:lcidtoname_downlevel.obj
 0002:000062a8       ??_C@_1M@GMPONJN@?$AAe?$AAn?$AA?9?$AAa?$AAu?$AA?$AA@ 00000001800232a8     libucrt:lcidtoname_downlevel.obj
 0002:000062b8       ??_C@_1M@NIDIIPGF@?$AAe?$AAn?$AA?9?$AAb?$AAz?$AA?$AA@ 00000001800232b8     libucrt:lcidtoname_downlevel.obj
 0002:000062c8       ??_C@_1M@JEHMIMFO@?$AAe?$AAn?$AA?9?$AAc?$AAa?$AA?$AA@ 00000001800232c8     libucrt:lcidtoname_downlevel.obj
 0002:000062d8       ??_C@_1M@IGMJCDLA@?$AAe?$AAn?$AA?9?$AAc?$AAb?$AA?$AA@ 00000001800232d8     libucrt:lcidtoname_downlevel.obj
 0002:000062e8       ??_C@_1M@BNFIGBKG@?$AAe?$AAn?$AA?9?$AAg?$AAb?$AA?$AA@ 00000001800232e8     libucrt:lcidtoname_downlevel.obj
 0002:000062f8       ??_C@_1M@LKIFDIGP@?$AAe?$AAn?$AA?9?$AAi?$AAe?$AA?$AA@ 00000001800232f8     libucrt:lcidtoname_downlevel.obj
 0002:00006308       ??_C@_1M@PJKFGCCO@?$AAe?$AAn?$AA?9?$AAj?$AAm?$AA?$AA@ 0000000180023308     libucrt:lcidtoname_downlevel.obj
 0002:00006318       ??_C@_1M@KPPKEPBO@?$AAe?$AAn?$AA?9?$AAn?$AAz?$AA?$AA@ 0000000180023318     libucrt:lcidtoname_downlevel.obj
 0002:00006328       ??_C@_1M@GMDGLDOB@?$AAe?$AAn?$AA?9?$AAp?$AAh?$AA?$AA@ 0000000180023328     libucrt:lcidtoname_downlevel.obj
 0002:00006338       ??_C@_1M@ONGIBJNA@?$AAe?$AAn?$AA?9?$AAt?$AAt?$AA?$AA@ 0000000180023338     libucrt:lcidtoname_downlevel.obj
 0002:00006348       ??_C@_1M@LLODPCMM@?$AAe?$AAn?$AA?9?$AAu?$AAs?$AA?$AA@ 0000000180023348     libucrt:lcidtoname_downlevel.obj
 0002:00006358       ??_C@_1M@LAKFNPAN@?$AAe?$AAn?$AA?9?$AAz?$AAa?$AA?$AA@ 0000000180023358     libucrt:lcidtoname_downlevel.obj
 0002:00006368       ??_C@_1M@MFNHNHEO@?$AAe?$AAn?$AA?9?$AAz?$AAw?$AA?$AA@ 0000000180023368     libucrt:lcidtoname_downlevel.obj
 0002:00006378       ??_C@_1M@EJEINPHM@?$AAe?$AAs?$AA?9?$AAa?$AAr?$AA?$AA@ 0000000180023378     libucrt:lcidtoname_downlevel.obj
 0002:00006388       ??_C@_1M@GNKPCCJA@?$AAe?$AAs?$AA?9?$AAb?$AAo?$AA?$AA@ 0000000180023388     libucrt:lcidtoname_downlevel.obj
 0002:00006398       ??_C@_1M@LEEGFONL@?$AAe?$AAs?$AA?9?$AAc?$AAl?$AA?$AA@ 0000000180023398     libucrt:lcidtoname_downlevel.obj
 0002:000063a8       ??_C@_1M@KGPDPBDF@?$AAe?$AAs?$AA?9?$AAc?$AAo?$AA?$AA@ 00000001800233a8     libucrt:lcidtoname_downlevel.obj
 0002:000063b8       ??_C@_1M@EIAHOHH@?$AAe?$AAs?$AA?9?$AAc?$AAr?$AA?$AA@ 00000001800233b8     libucrt:lcidtoname_downlevel.obj
 0002:000063c8       ??_C@_1M@LLPGMBIN@?$AAe?$AAs?$AA?9?$AAd?$AAo?$AA?$AA@ 00000001800233c8     libucrt:lcidtoname_downlevel.obj
 0002:000063d8       ??_C@_1M@DKHMKNJA@?$AAe?$AAs?$AA?9?$AAe?$AAc?$AA?$AA@ 00000001800233d8     libucrt:lcidtoname_downlevel.obj
 0002:000063e8       ??_C@_1M@GKGFPKAP@?$AAe?$AAs?$AA?9?$AAe?$AAs?$AA?$AA@ 00000001800233e8     libucrt:lcidtoname_downlevel.obj
 0002:000063f8       ??_C@_1M@LKHKGDLN@?$AAe?$AAs?$AA?9?$AAg?$AAt?$AA?$AA@ 00000001800233f8     libucrt:lcidtoname_downlevel.obj
 0002:00006408       ??_C@_1M@HEIIGGJD@?$AAe?$AAs?$AA?9?$AAh?$AAn?$AA?$AA@ 0000000180023408     libucrt:lcidtoname_downlevel.obj
 0002:00006418       ??_C@_1M@FBDHPPGD@?$AAe?$AAs?$AA?9?$AAm?$AAx?$AA?$AA@ 0000000180023418     libucrt:lcidtoname_downlevel.obj
 0002:00006428       ??_C@_1M@DPAGLNDH@?$AAe?$AAs?$AA?9?$AAn?$AAi?$AA?$AA@ 0000000180023428     libucrt:lcidtoname_downlevel.obj
 0002:00006438       ??_C@_1M@MDGOPGDD@?$AAe?$AAs?$AA?9?$AAp?$AAa?$AA?$AA@ 0000000180023438     libucrt:lcidtoname_downlevel.obj
 0002:00006448       ??_C@_1M@EMAMGBGE@?$AAe?$AAs?$AA?9?$AAp?$AAe?$AA?$AA@ 0000000180023448     libucrt:lcidtoname_downlevel.obj
 0002:00006458       ??_C@_1M@IBMCAOEC@?$AAe?$AAs?$AA?9?$AAp?$AAr?$AA?$AA@ 0000000180023458     libucrt:lcidtoname_downlevel.obj
 0002:00006468       ??_C@_1M@FGMDIJED@?$AAe?$AAs?$AA?9?$AAp?$AAy?$AA?$AA@ 0000000180023468     libucrt:lcidtoname_downlevel.obj
 0002:00006478       ??_C@_1M@IIDEOLLL@?$AAe?$AAs?$AA?9?$AAs?$AAv?$AA?$AA@ 0000000180023478     libucrt:lcidtoname_downlevel.obj
 0002:00006488       ??_C@_1M@GAOBIPA@?$AAe?$AAs?$AA?9?$AAu?$AAy?$AA?$AA@ 0000000180023488     libucrt:lcidtoname_downlevel.obj
 0002:00006498       ??_C@_1M@JKFFICHJ@?$AAe?$AAs?$AA?9?$AAv?$AAe?$AA?$AA@ 0000000180023498     libucrt:lcidtoname_downlevel.obj
 0002:000064a8       ??_C@_1M@PNMLOJDF@?$AAe?$AAt?$AA?9?$AAe?$AAe?$AA?$AA@ 00000001800234a8     libucrt:lcidtoname_downlevel.obj
 0002:000064b8       ??_C@_1M@GHHLIKEI@?$AAe?$AAu?$AA?9?$AAe?$AAs?$AA?$AA@ 00000001800234b8     libucrt:lcidtoname_downlevel.obj
 0002:000064c8       ??_C@_1M@PBNONODE@?$AAf?$AAa?$AA?9?$AAi?$AAr?$AA?$AA@ 00000001800234c8     libucrt:lcidtoname_downlevel.obj
 0002:000064d8       ??_C@_1M@JEEHPMIL@?$AAf?$AAi?$AA?9?$AAf?$AAi?$AA?$AA@ 00000001800234d8     libucrt:lcidtoname_downlevel.obj
 0002:000064e8       ??_C@_1M@LMDCNDBA@?$AAf?$AAo?$AA?9?$AAf?$AAo?$AA?$AA@ 00000001800234e8     libucrt:lcidtoname_downlevel.obj
 0002:000064f8       ??_C@_1M@JKEOHLDK@?$AAf?$AAr?$AA?9?$AAb?$AAe?$AA?$AA@ 00000001800234f8     libucrt:lcidtoname_downlevel.obj
 0002:00006508       ??_C@_1M@NOHADPMI@?$AAf?$AAr?$AA?9?$AAc?$AAa?$AA?$AA@ 0000000180023508     libucrt:lcidtoname_downlevel.obj
 0002:00006518       ??_C@_1M@KDHIHAEC@?$AAf?$AAr?$AA?9?$AAc?$AAh?$AA?$AA@ 0000000180023518     libucrt:lcidtoname_downlevel.obj
 0002:00006528       ??_C@_1M@MMBBFGAK@?$AAf?$AAr?$AA?9?$AAf?$AAr?$AA?$AA@ 0000000180023528     libucrt:lcidtoname_downlevel.obj
 0002:00006538       ??_C@_1M@PAFNENNF@?$AAf?$AAr?$AA?9?$AAl?$AAu?$AA?$AA@ 0000000180023538     libucrt:lcidtoname_downlevel.obj
 0002:00006548       ??_C@_1M@EOHDJGDD@?$AAf?$AAr?$AA?9?$AAm?$AAc?$AA?$AA@ 0000000180023548     libucrt:lcidtoname_downlevel.obj
 0002:00006558       ??_C@_1M@FAPLLOPF@?$AAg?$AAl?$AA?9?$AAe?$AAs?$AA?$AA@ 0000000180023558     libucrt:lcidtoname_downlevel.obj
 0002:00006568       ??_C@_1M@FOPBFLOO@?$AAg?$AAu?$AA?9?$AAi?$AAn?$AA?$AA@ 0000000180023568     libucrt:lcidtoname_downlevel.obj
 0002:00006578       ??_C@_1M@KBMCINPM@?$AAh?$AAe?$AA?9?$AAi?$AAl?$AA?$AA@ 0000000180023578     libucrt:lcidtoname_downlevel.obj
 0002:00006588       ??_C@_1M@BBPHKFPJ@?$AAh?$AAi?$AA?9?$AAi?$AAn?$AA?$AA@ 0000000180023588     libucrt:lcidtoname_downlevel.obj
 0002:00006598       ??_C@_1M@PMBNDPHD@?$AAh?$AAr?$AA?9?$AAb?$AAa?$AA?$AA@ 0000000180023598     libucrt:lcidtoname_downlevel.obj
 0002:000065a8       ??_C@_1M@BPCKOEGE@?$AAh?$AAr?$AA?9?$AAh?$AAr?$AA?$AA@ 00000001800235a8     libucrt:lcidtoname_downlevel.obj
 0002:000065b8       ??_C@_1M@GACBMHKE@?$AAh?$AAu?$AA?9?$AAh?$AAu?$AA?$AA@ 00000001800235b8     libucrt:lcidtoname_downlevel.obj
 0002:000065c8       ??_C@_1M@MILPAJJC@?$AAh?$AAy?$AA?9?$AAa?$AAm?$AA?$AA@ 00000001800235c8     libucrt:lcidtoname_downlevel.obj
 0002:000065d8       ??_C@_1M@BABBICEC@?$AAi?$AAd?$AA?9?$AAi?$AAd?$AA?$AA@ 00000001800235d8     libucrt:lcidtoname_downlevel.obj
 0002:000065e8       ??_C@_1M@BIKNHHPF@?$AAi?$AAs?$AA?9?$AAi?$AAs?$AA?$AA@ 00000001800235e8     libucrt:lcidtoname_downlevel.obj
 0002:000065f8       ??_C@_1M@NMPCJPHE@?$AAi?$AAt?$AA?9?$AAc?$AAh?$AA?$AA@ 00000001800235f8     libucrt:lcidtoname_downlevel.obj
 0002:00006608       ??_C@_1M@GHKGFEDF@?$AAi?$AAt?$AA?9?$AAi?$AAt?$AA?$AA@ 0000000180023608     libucrt:lcidtoname_downlevel.obj
 0002:00006618       ??_C@_1M@NIEJCJJA@?$AAj?$AAa?$AA?9?$AAj?$AAp?$AA?$AA@ 0000000180023618     libucrt:lcidtoname_downlevel.obj
 0002:00006628       ??_C@_1M@JILFNBIM@?$AAk?$AAa?$AA?9?$AAg?$AAe?$AA?$AA@ 0000000180023628     libucrt:lcidtoname_downlevel.obj
 0002:00006638       ??_C@_1M@PACPMGPH@?$AAk?$AAk?$AA?9?$AAk?$AAz?$AA?$AA@ 0000000180023638     libucrt:lcidtoname_downlevel.obj
 0002:00006648       ??_C@_1M@IELFGMHA@?$AAk?$AAn?$AA?9?$AAi?$AAn?$AA?$AA@ 0000000180023648     libucrt:lcidtoname_downlevel.obj
 0002:00006658       ??_C@_1O@IBBJHCH@?$AAk?$AAo?$AAk?$AA?9?$AAi?$AAn?$AA?$AA@ 0000000180023658     libucrt:lcidtoname_downlevel.obj
 0002:00006668       ??_C@_1M@DMHAEOGC@?$AAk?$AAo?$AA?9?$AAk?$AAr?$AA?$AA@ 0000000180023668     libucrt:lcidtoname_downlevel.obj
 0002:00006678       ??_C@_1M@HBAHBIGA@?$AAk?$AAy?$AA?9?$AAk?$AAg?$AA?$AA@ 0000000180023678     libucrt:lcidtoname_downlevel.obj
 0002:00006688       ??_C@_1M@KPMILCJG@?$AAl?$AAt?$AA?9?$AAl?$AAt?$AA?$AA@ 0000000180023688     libucrt:lcidtoname_downlevel.obj
 0002:00006698       ??_C@_1M@BDEKKCA@?$AAl?$AAv?$AA?9?$AAl?$AAv?$AA?$AA@ 0000000180023698     libucrt:lcidtoname_downlevel.obj
 0002:000066a8       ??_C@_1M@ELCKCCJJ@?$AAm?$AAi?$AA?9?$AAn?$AAz?$AA?$AA@ 00000001800236a8     libucrt:lcidtoname_downlevel.obj
 0002:000066b8       ??_C@_1M@CBOOLAPA@?$AAm?$AAk?$AA?9?$AAm?$AAk?$AA?$AA@ 00000001800236b8     libucrt:lcidtoname_downlevel.obj
 0002:000066c8       ??_C@_1M@GPHNBJKN@?$AAm?$AAl?$AA?9?$AAi?$AAn?$AA?$AA@ 00000001800236c8     libucrt:lcidtoname_downlevel.obj
 0002:000066d8       ??_C@_1M@PABJILIG@?$AAm?$AAn?$AA?9?$AAm?$AAn?$AA?$AA@ 00000001800236d8     libucrt:lcidtoname_downlevel.obj
 0002:000066e8       ??_C@_1M@FGBKKIPG@?$AAm?$AAr?$AA?9?$AAi?$AAn?$AA?$AA@ 00000001800236e8     libucrt:lcidtoname_downlevel.obj
 0002:000066f8       ??_C@_1M@NDBPDDAL@?$AAm?$AAs?$AA?9?$AAb?$AAn?$AA?$AA@ 00000001800236f8     libucrt:lcidtoname_downlevel.obj
 0002:00006708       ??_C@_1M@OPIHOOPI@?$AAm?$AAs?$AA?9?$AAm?$AAy?$AA?$AA@ 0000000180023708     libucrt:lcidtoname_downlevel.obj
 0002:00006718       ??_C@_1M@PPDBCNFM@?$AAm?$AAt?$AA?9?$AAm?$AAt?$AA?$AA@ 0000000180023718     libucrt:lcidtoname_downlevel.obj
 0002:00006728       ??_C@_1M@KDJDKMDD@?$AAn?$AAb?$AA?9?$AAn?$AAo?$AA?$AA@ 0000000180023728     libucrt:lcidtoname_downlevel.obj
 0002:00006738       ??_C@_1M@KFCFLMJP@?$AAn?$AAl?$AA?9?$AAb?$AAe?$AA?$AA@ 0000000180023738     libucrt:lcidtoname_downlevel.obj
 0002:00006748       ??_C@_1M@KPOPDDGO@?$AAn?$AAl?$AA?9?$AAn?$AAl?$AA?$AA@ 0000000180023748     libucrt:lcidtoname_downlevel.obj
 0002:00006758       ??_C@_1M@LJKPEMLN@?$AAn?$AAn?$AA?9?$AAn?$AAo?$AA?$AA@ 0000000180023758     libucrt:lcidtoname_downlevel.obj
 0002:00006768       ??_C@_1M@BDGHHBFL@?$AAn?$AAs?$AA?9?$AAz?$AAa?$AA?$AA@ 0000000180023768     libucrt:lcidtoname_downlevel.obj
 0002:00006778       ??_C@_1M@IDEHOAP@?$AAp?$AAa?$AA?9?$AAi?$AAn?$AA?$AA@ 0000000180023778     libucrt:lcidtoname_downlevel.obj
 0002:00006788       ??_C@_1M@HDBKGOGH@?$AAp?$AAl?$AA?9?$AAp?$AAl?$AA?$AA@ 0000000180023788     libucrt:lcidtoname_downlevel.obj
 0002:00006798       ??_C@_1M@LJLLCMEH@?$AAp?$AAt?$AA?9?$AAb?$AAr?$AA?$AA@ 0000000180023798     libucrt:lcidtoname_downlevel.obj
 0002:000067a8       ??_C@_1M@NCMONAAL@?$AAp?$AAt?$AA?9?$AAp?$AAt?$AA?$AA@ 00000001800237a8     libucrt:lcidtoname_downlevel.obj
 0002:000067b8       ??_C@_1O@EAKMAJDN@?$AAq?$AAu?$AAz?$AA?9?$AAb?$AAo?$AA?$AA@ 00000001800237b8     libucrt:lcidtoname_downlevel.obj
 0002:000067c8       ??_C@_1O@BHHPIGDN@?$AAq?$AAu?$AAz?$AA?9?$AAe?$AAc?$AA?$AA@ 00000001800237c8     libucrt:lcidtoname_downlevel.obj
 0002:000067d8       ??_C@_1O@GBAPEKMJ@?$AAq?$AAu?$AAz?$AA?9?$AAp?$AAe?$AA?$AA@ 00000001800237d8     libucrt:lcidtoname_downlevel.obj
 0002:000067e8       ??_C@_1M@CLGLEFBO@?$AAr?$AAo?$AA?9?$AAr?$AAo?$AA?$AA@ 00000001800237e8     libucrt:lcidtoname_downlevel.obj
 0002:000067f8       ??_C@_1M@CEEDODME@?$AAr?$AAu?$AA?9?$AAr?$AAu?$AA?$AA@ 00000001800237f8     libucrt:lcidtoname_downlevel.obj
 0002:00006808       ??_C@_1M@HPKKKMPP@?$AAs?$AAa?$AA?9?$AAi?$AAn?$AA?$AA@ 0000000180023808     libucrt:lcidtoname_downlevel.obj
 0002:00006818       ??_C@_1M@BKMAIGOJ@?$AAs?$AAe?$AA?9?$AAf?$AAi?$AA?$AA@ 0000000180023818     libucrt:lcidtoname_downlevel.obj
 0002:00006828       ??_C@_1M@NDPIFLFI@?$AAs?$AAe?$AA?9?$AAn?$AAo?$AA?$AA@ 0000000180023828     libucrt:lcidtoname_downlevel.obj
 0002:00006838       ??_C@_1M@DANKKHJ@?$AAs?$AAe?$AA?9?$AAs?$AAe?$AA?$AA@ 0000000180023838     libucrt:lcidtoname_downlevel.obj
 0002:00006848       ??_C@_1M@PNBLONPJ@?$AAs?$AAk?$AA?9?$AAs?$AAk?$AA?$AA@ 0000000180023848     libucrt:lcidtoname_downlevel.obj
 0002:00006858       ??_C@_1M@LFMODOAL@?$AAs?$AAl?$AA?9?$AAs?$AAi?$AA?$AA@ 0000000180023858     libucrt:lcidtoname_downlevel.obj
 0002:00006868       ??_C@_1O@DFKOMPG@?$AAs?$AAm?$AAa?$AA?9?$AAn?$AAo?$AA?$AA@ 0000000180023868     libucrt:lcidtoname_downlevel.obj
 0002:00006878       ??_C@_1O@NDKPBNNH@?$AAs?$AAm?$AAa?$AA?9?$AAs?$AAe?$AA?$AA@ 0000000180023878     libucrt:lcidtoname_downlevel.obj
 0002:00006888       ??_C@_1O@PLLKBHAB@?$AAs?$AAm?$AAj?$AA?9?$AAn?$AAo?$AA?$AA@ 0000000180023888     libucrt:lcidtoname_downlevel.obj
 0002:00006898       ??_C@_1O@CLEPOGCA@?$AAs?$AAm?$AAj?$AA?9?$AAs?$AAe?$AA?$AA@ 0000000180023898     libucrt:lcidtoname_downlevel.obj
 0002:000068a8       ??_C@_1O@DLGJGKMK@?$AAs?$AAm?$AAn?$AA?9?$AAf?$AAi?$AA?$AA@ 00000001800238a8     libucrt:lcidtoname_downlevel.obj
 0002:000068b8       ??_C@_1O@OJDJGAJC@?$AAs?$AAm?$AAs?$AA?9?$AAf?$AAi?$AA?$AA@ 00000001800238b8     libucrt:lcidtoname_downlevel.obj
 0002:000068c8       ??_C@_1M@BOFOGHPB@?$AAs?$AAq?$AA?9?$AAa?$AAl?$AA?$AA@ 00000001800238c8     libucrt:lcidtoname_downlevel.obj
 0002:000068d8       ??_C@_1BG@LJBBIPGB@?$AAs?$AAr?$AA?9?$AAb?$AAa?$AA?9?$AAc?$AAy?$AAr?$AAl?$AA?$AA@ 00000001800238d8     libucrt:lcidtoname_downlevel.obj
 0002:000068f0       ??_C@_1BG@JLBENFOE@?$AAs?$AAr?$AA?9?$AAb?$AAa?$AA?9?$AAl?$AAa?$AAt?$AAn?$AA?$AA@ 00000001800238f0     libucrt:lcidtoname_downlevel.obj
 0002:00006908       ??_C@_1BG@KODPNHE@?$AAs?$AAr?$AA?9?$AAs?$AAp?$AA?9?$AAc?$AAy?$AAr?$AAl?$AA?$AA@ 0000000180023908     libucrt:lcidtoname_downlevel.obj
 0002:00006920       ??_C@_1BG@CIOGKHPB@?$AAs?$AAr?$AA?9?$AAs?$AAp?$AA?9?$AAl?$AAa?$AAt?$AAn?$AA?$AA@ 0000000180023920     libucrt:lcidtoname_downlevel.obj
 0002:00006938       ??_C@_1M@NGFJLMAC@?$AAs?$AAv?$AA?9?$AAf?$AAi?$AA?$AA@ 0000000180023938     libucrt:lcidtoname_downlevel.obj
 0002:00006948       ??_C@_1M@MPJEJAJC@?$AAs?$AAv?$AA?9?$AAs?$AAe?$AA?$AA@ 0000000180023948     libucrt:lcidtoname_downlevel.obj
 0002:00006958       ??_C@_1M@MPNDHLFK@?$AAs?$AAw?$AA?9?$AAk?$AAe?$AA?$AA@ 0000000180023958     libucrt:lcidtoname_downlevel.obj
 0002:00006968       ??_C@_1O@KOHBJJI@?$AAs?$AAy?$AAr?$AA?9?$AAs?$AAy?$AA?$AA@ 0000000180023968     libucrt:lcidtoname_downlevel.obj
 0002:00006978       ??_C@_1M@LDCEFHA@?$AAt?$AAa?$AA?9?$AAi?$AAn?$AA?$AA@ 0000000180023978     libucrt:lcidtoname_downlevel.obj
 0002:00006988       ??_C@_1M@CNJOFAK@?$AAt?$AAe?$AA?9?$AAi?$AAn?$AA?$AA@ 0000000180023988     libucrt:lcidtoname_downlevel.obj
 0002:00006998       ??_C@_1M@GNAECACD@?$AAt?$AAh?$AA?9?$AAt?$AAh?$AA?$AA@ 0000000180023998     libucrt:lcidtoname_downlevel.obj
 0002:000069a8       ??_C@_1M@CHBIHOJO@?$AAt?$AAn?$AA?9?$AAz?$AAa?$AA?$AA@ 00000001800239a8     libucrt:lcidtoname_downlevel.obj
 0002:000069b8       ??_C@_1M@GCCMIGPJ@?$AAt?$AAr?$AA?9?$AAt?$AAr?$AA?$AA@ 00000001800239b8     libucrt:lcidtoname_downlevel.obj
 0002:000069c8       ??_C@_1M@CELMCNBK@?$AAt?$AAt?$AA?9?$AAr?$AAu?$AA?$AA@ 00000001800239c8     libucrt:lcidtoname_downlevel.obj
 0002:000069d8       ??_C@_1M@KLMCELGA@?$AAu?$AAk?$AA?9?$AAu?$AAa?$AA?$AA@ 00000001800239d8     libucrt:lcidtoname_downlevel.obj
 0002:000069e8       ??_C@_1M@EPAJJAJF@?$AAu?$AAr?$AA?9?$AAp?$AAk?$AA?$AA@ 00000001800239e8     libucrt:lcidtoname_downlevel.obj
 0002:000069f8       ??_C@_1BG@GEGPMCDJ@?$AAu?$AAz?$AA?9?$AAu?$AAz?$AA?9?$AAc?$AAy?$AAr?$AAl?$AA?$AA@ 00000001800239f8     libucrt:lcidtoname_downlevel.obj
 0002:00006a10       ??_C@_1BG@EGGKJILM@?$AAu?$AAz?$AA?9?$AAu?$AAz?$AA?9?$AAl?$AAa?$AAt?$AAn?$AA?$AA@ 0000000180023a10     libucrt:lcidtoname_downlevel.obj
 0002:00006a28       ??_C@_1M@GFOCLFF@?$AAv?$AAi?$AA?9?$AAv?$AAn?$AA?$AA@ 0000000180023a28     libucrt:lcidtoname_downlevel.obj
 0002:00006a38       ??_C@_1M@CPAMEDFI@?$AAx?$AAh?$AA?9?$AAz?$AAa?$AA?$AA@ 0000000180023a38     libucrt:lcidtoname_downlevel.obj
 0002:00006a48       ??_C@_1O@EBKIFIGN@?$AAz?$AAh?$AA?9?$AAc?$AAh?$AAs?$AA?$AA@ 0000000180023a48     libucrt:lcidtoname_downlevel.obj
 0002:00006a58       ??_C@_1O@NMHPGANE@?$AAz?$AAh?$AA?9?$AAc?$AAh?$AAt?$AA?$AA@ 0000000180023a58     libucrt:lcidtoname_downlevel.obj
 0002:00006a68       ??_C@_1M@LPINJOMC@?$AAz?$AAh?$AA?9?$AAc?$AAn?$AA?$AA@ 0000000180023a68     libucrt:lcidtoname_downlevel.obj
 0002:00006a78       ??_C@_1M@OCJEJODD@?$AAz?$AAh?$AA?9?$AAh?$AAk?$AA?$AA@ 0000000180023a78     libucrt:lcidtoname_downlevel.obj
 0002:00006a88       ??_C@_1M@DNDLJINH@?$AAz?$AAh?$AA?9?$AAm?$AAo?$AA?$AA@ 0000000180023a88     libucrt:lcidtoname_downlevel.obj
 0002:00006a98       ??_C@_1M@MBFDNDND@?$AAz?$AAh?$AA?9?$AAs?$AAg?$AA?$AA@ 0000000180023a98     libucrt:lcidtoname_downlevel.obj
 0002:00006aa8       ??_C@_1M@IMEPLEPE@?$AAz?$AAh?$AA?9?$AAt?$AAw?$AA?$AA@ 0000000180023aa8     libucrt:lcidtoname_downlevel.obj
 0002:00006ab8       ??_C@_1M@BBGHNHJP@?$AAz?$AAu?$AA?9?$AAz?$AAa?$AA?$AA@ 0000000180023ab8     libucrt:lcidtoname_downlevel.obj
 0002:00006ac8       __real@3ff0000000000000    0000000180023ac8     libucrt:ceil.obj
 0002:00006d20       ??_C@_1BA@BALFACEM@?$AAC?$AAO?$AAN?$AAO?$AAU?$AAT?$AA$?$AA?$AA@ 0000000180023d20     libucrt:initcon.obj
 0002:00006d30       __log10_256_lead           0000000180023d30     libucrt:log10_256_lead_tail_table.obj
 0002:00007540       __log10_256_tail           0000000180024540     libucrt:log10_256_lead_tail_table.obj
 0002:00007d50       __log_F_inv_qword          0000000180024d50     libucrt:log_f_inv_qword_table.obj
 0002:00008560       ??_C@_05HGHHAHAP@log10?$AA@ 0000000180025560     libucrt:log_special.obj
 0002:00008580       ??_C@_1BK@DBDEIDLH@?$AAK?$AAE?$AAR?$AAN?$AAE?$AAL?$AA3?$AA2?$AA?4?$AAD?$AAL?$AAL@ 0000000180025580     DelayImp:delayhlp.obj
 0002:000085a0       ??_C@_0BI@OMNLIJDB@AcquireSRWLockExclusive@ 00000001800255a0     DelayImp:delayhlp.obj
 0002:000085b8       ??_C@_0BI@HMIEPCNJ@ReleaseSRWLockExclusive@ 00000001800255b8     DelayImp:delayhlp.obj
 0002:000085d0       __pfnDliFailureHook2       00000001800255d0     DelayImp:delayhk1.obj
 0002:000085e0       _load_config_used          00000001800255e0     LIBCMT:loadcfg.obj
 0002:000086e0       ??_C@_1JO@HKLBBLCA@?$AAc?$AA?3?$AA?2?$AAu?$AAs?$AAe?$AAr?$AAs?$AA?2?$AAm?$AAi?$AAt?$AAc?$AAh?$AA?2@ 00000001800256e0     msgpack.obj
 0002:00008780       ??_C@_1GA@PFOOBIAG@?$AAl?$AAe?$AAn?$AAg?$AAt?$AAh?$AA?5?$AA?$DM?$AA?$DN?$AA?5?$AAi?$AAm?$AAp?$AA?3?$AA?3@ 0000000180025780     msgpack.obj
 0002:000087e0       ??_C@_1FM@LOELJOFK@?$AAs?$AAi?$AAz?$AAe?$AA?5?$AA?$DM?$AA?$DN?$AA?5?$AAi?$AAm?$AAp?$AA?3?$AA?3?$AAk?$AAM@ 00000001800257e0     msgpack.obj
 0002:00008840       ??_C@_0DJ@JBLGHJH@Cowardly?5refusing?5to?5pack?5objec@ 0000000180025840     msgpack.obj
 0002:00008880       ??_C@_0M@JGMAMMOM@toISOString@ 0000000180025880     msgpack.obj
 0002:0000888c       ??_C@_06FNNBCBOE@toJSON@   000000018002588c     msgpack.obj
 0002:00008898       ??_C@_0CN@GJKJICPJ@Encountered?5unknown?5MesssagePac@ 0000000180025898     msgpack.obj
 0002:000088c8       ??_C@_0BK@GOPHBKOO@Error?5serializaing?5object@ 00000001800258c8     msgpack.obj
 0002:000088e8       ??_C@_0CA@MEOKGEGH@First?5argument?5must?5be?5a?5Buffer@ 00000001800258e8     msgpack.obj
 0002:00008908       ??_C@_0BA@CAEDKJHA@bytes_remaining@ 0000000180025908     msgpack.obj
 0002:00008918       ??_C@_0BM@OAMHLAIE@Error?5de?9serializing?5object@ 0000000180025918     msgpack.obj
 0002:00008934       ??_C@_04IPANLPFO@pack@     0000000180025934     msgpack.obj
 0002:0000893c       ??_C@_06FIONAGJL@unpack@   000000018002593c     msgpack.obj
 0002:00008950       ??_C@_0FM@IHFBLBHA@c?3?2users?2mitch?2desktop?2github?2b@ 0000000180025950     msgpack.obj
 0002:000089b0       ??_C@_0P@CHGFDJKL@msgpackBinding@ 00000001800259b0     msgpack.obj
 0002:000089c0       ??_C@_0BC@KBDMBKEH@deque?$DMT?$DO?5too?5long@ 00000001800259c0     msgpack.obj
 0002:000089d8       ??_C@_08HCOMDCCD@iojs?4exe@ 00000001800259d8     win_delay_load_hook.obj
 0002:000089e8       ??_C@_08JDDNMFDB@node?4exe@ 00000001800259e8     win_delay_load_hook.obj
 0002:000089f8       __pfnDliNotifyHook2        00000001800259f8     win_delay_load_hook.obj
 0002:00008a00       ??_C@_1OI@MNHPJE@?$AAc?$AA?3?$AA?2?$AAu?$AAs?$AAe?$AAr?$AAs?$AA?2?$AAm?$AAi?$AAt?$AAc?$AAh?$AA?2@ 0000000180025a00     libmsgpack:unpack.obj
 0002:00008ae8       ??_C@_1BI@BJAOOPLG@?$AAl?$AAe?$AAn?$AA?5?$AA?$DO?$AA?$DN?$AA?5?$AA?$CK?$AAo?$AAf?$AAf@ 0000000180025ae8     libmsgpack:unpack.obj
 0002:00008b00       ??_C@_03ILAMHENH@nil@      0000000180025b00     libmsgpack:objectc.obj
 0002:00008b04       ??_C@_04LOAJBDKD@true@     0000000180025b04     libmsgpack:objectc.obj
 0002:00008b0c       ??_C@_05LAPONLG@false@     0000000180025b0c     libmsgpack:objectc.obj
 0002:00008b14       ??_C@_04FCIJFPNK@?$CFllu@  0000000180025b14     libmsgpack:objectc.obj
 0002:00008b1c       ??_C@_04LEPOACIH@?$CFlli@  0000000180025b1c     libmsgpack:objectc.obj
 0002:00008b24       ??_C@_02NJPGOMH@?$CFf@     0000000180025b24     libmsgpack:objectc.obj
 0002:00008b28       ??_C@_01BJJEKLCA@?$CC@     0000000180025b28     libmsgpack:objectc.obj
 0002:00008b30       ??_C@_0M@CLAEJHNB@?$CIext?3?5?$CFhhi?$CJ@ 0000000180025b30     libmsgpack:objectc.obj
 0002:00008b3c       ??_C@_01OHGJGJJP@?$FL@     0000000180025b3c     libmsgpack:objectc.obj
 0002:00008b40       ??_C@_02KEGNLNML@?0?5@     0000000180025b40     libmsgpack:objectc.obj
 0002:00008b44       ??_C@_01LBDDMOBJ@?$FN@     0000000180025b44     libmsgpack:objectc.obj
 0002:00008b48       ??_C@_01HCONENDN@?$HL@     0000000180025b48     libmsgpack:objectc.obj
 0002:00008b4c       ??_C@_02GNMIELFD@?$DN?$DO@ 0000000180025b4c     libmsgpack:objectc.obj
 0002:00008b50       ??_C@_01CELHOKLL@?$HN@     0000000180025b50     libmsgpack:objectc.obj
 0002:00008b58       ??_C@_0BD@FJPPEANJ@?$CD?$DMUNKNOWN?5?$CFi?5?$CFllu?$DO@ 0000000180025b58     libmsgpack:objectc.obj
 0002:00008cb0       __real@43e0000000000000    0000000180025cb0     msgpack.obj
 0002:00008cb8       __real@43f0000000000000    0000000180025cb8     msgpack.obj
 0002:00008cc0       __real@bff0000000000000    0000000180025cc0     libucrt:floor.obj
 0002:00008d40       ??_R4exception@std@@6B@    0000000180025d40     libcpmt:xthrow.obj
 0002:00008d68       ??_R3exception@std@@8      0000000180025d68     libcpmt:xthrow.obj
 0002:00008d80       ??_R2exception@std@@8      0000000180025d80     libcpmt:xthrow.obj
 0002:00008d90       ??_R1A@?0A@EA@exception@std@@8 0000000180025d90     libcpmt:xthrow.obj
 0002:00008db8       ??_R4bad_alloc@std@@6B@    0000000180025db8     libcpmt:xthrow.obj
 0002:00008de0       ??_R3bad_alloc@std@@8      0000000180025de0     libcpmt:xthrow.obj
 0002:00008df8       ??_R2bad_alloc@std@@8      0000000180025df8     libcpmt:xthrow.obj
 0002:00008e10       ??_R1A@?0A@EA@bad_alloc@std@@8 0000000180025e10     libcpmt:xthrow.obj
 0002:00008e38       ??_R4logic_error@std@@6B@  0000000180025e38     libcpmt:xthrow.obj
 0002:00008e60       ??_R3logic_error@std@@8    0000000180025e60     libcpmt:xthrow.obj
 0002:00008e78       ??_R2logic_error@std@@8    0000000180025e78     libcpmt:xthrow.obj
 0002:00008e90       ??_R1A@?0A@EA@logic_error@std@@8 0000000180025e90     libcpmt:xthrow.obj
 0002:00008eb8       ??_R4length_error@std@@6B@ 0000000180025eb8     libcpmt:xthrow.obj
 0002:00008ee0       ??_R3length_error@std@@8   0000000180025ee0     libcpmt:xthrow.obj
 0002:00008ef8       ??_R2length_error@std@@8   0000000180025ef8     libcpmt:xthrow.obj
 0002:00008f18       ??_R1A@?0A@EA@length_error@std@@8 0000000180025f18     libcpmt:xthrow.obj
 0002:00008f40       ??_R4type_info@@6B@        0000000180025f40     LIBCMT:std_type_info_static.obj
 0002:00008f68       ??_R3type_info@@8          0000000180025f68     LIBCMT:std_type_info_static.obj
 0002:00008f80       ??_R2type_info@@8          0000000180025f80     LIBCMT:std_type_info_static.obj
 0002:00008f90       ??_R1A@?0A@EA@type_info@@8 0000000180025f90     LIBCMT:std_type_info_static.obj
 0002:00008fb8       ??_R4bad_array_new_length@std@@6B@ 0000000180025fb8     LIBCMT:throw_bad_alloc.obj
 0002:00008fe0       ??_R3bad_array_new_length@std@@8 0000000180025fe0     LIBCMT:throw_bad_alloc.obj
 0002:00008ff8       ??_R2bad_array_new_length@std@@8 0000000180025ff8     LIBCMT:throw_bad_alloc.obj
 0002:00009018       ??_R1A@?0A@EA@bad_array_new_length@std@@8 0000000180026018     LIBCMT:throw_bad_alloc.obj
 0002:00009040       ??_R4bad_exception@std@@6B@ 0000000180026040     libvcruntime:frame.obj
 0002:00009068       ??_R3bad_exception@std@@8  0000000180026068     libvcruntime:frame.obj
 0002:00009080       ??_R2bad_exception@std@@8  0000000180026080     libvcruntime:frame.obj
 0002:00009098       ??_R1A@?0A@EA@bad_exception@std@@8 0000000180026098     libvcruntime:frame.obj
 0002:000094c0       __rtc_iaa                  00000001800264c0     LIBCMT:initsect.obj
 0002:000094c8       __rtc_izz                  00000001800264c8     LIBCMT:initsect.obj
 0002:000094d0       __rtc_taa                  00000001800264d0     LIBCMT:initsect.obj
 0002:000094d8       __rtc_tzz                  00000001800264d8     LIBCMT:initsect.obj
 0002:0000acd0       _TI2?AVbad_alloc@std@@     0000000180027cd0     libcpmt:xthrow.obj
 0002:0000acf0       _CTA2?AVbad_alloc@std@@    0000000180027cf0     libcpmt:xthrow.obj
 0002:0000ad08       _CT??_R0?AVbad_alloc@std@@@8??0bad_alloc@std@@QEAA@AEBV01@@Z24 0000000180027d08     libcpmt:xthrow.obj
 0002:0000ad30       _CT??_R0?AVexception@std@@@8??0exception@std@@QEAA@AEBV01@@Z24 0000000180027d30     libcpmt:xthrow.obj
 0002:0000ad58       _CT??_R0?AVlogic_error@std@@@8??0logic_error@std@@QEAA@AEBV01@@Z24 0000000180027d58     libcpmt:xthrow.obj
 0002:0000ad80       _TI3?AVlength_error@std@@  0000000180027d80     libcpmt:xthrow.obj
 0002:0000ada0       _CTA3?AVlength_error@std@@ 0000000180027da0     libcpmt:xthrow.obj
 0002:0000adc0       _CT??_R0?AVlength_error@std@@@8??0length_error@std@@QEAA@AEBV01@@Z24 0000000180027dc0     libcpmt:xthrow.obj
 0002:0000ade8       _TI3?AVbad_array_new_length@std@@ 0000000180027de8     LIBCMT:throw_bad_alloc.obj
 0002:0000ae08       _CTA3?AVbad_array_new_length@std@@ 0000000180027e08     LIBCMT:throw_bad_alloc.obj
 0002:0000ae28       _CT??_R0?AVbad_array_new_length@std@@@8??0bad_array_new_length@std@@QEAA@AEBV01@@Z24 0000000180027e28     LIBCMT:throw_bad_alloc.obj
 0002:0000ae50       _TI2?AVbad_exception@std@@ 0000000180027e50     libvcruntime:frame.obj
 0002:0000ae70       _CTA2?AVbad_exception@std@@ 0000000180027e70     libvcruntime:frame.obj
 0002:0000ae88       _CT??_R0?AVbad_exception@std@@@8??0bad_exception@std@@QEAA@AEBV01@@Z24 0000000180027e88     libvcruntime:frame.obj
 0002:0000aeb0       _TI1?AVMsgpackException@@  0000000180027eb0     msgpack.obj
 0002:0000aed0       _CT??_R0?AVMsgpackException@@@88 0000000180027ed0     msgpack.obj
 0002:0000aef8       _CTA1?AVMsgpackException@@ 0000000180027ef8     msgpack.obj
 0002:0000af04       __DELAY_IMPORT_DESCRIPTOR_node_exe 0000000180027f04     node:node.exe
 0002:0000af24       __NULL_DELAY_IMPORT_DESCRIPTOR 0000000180027f24     node:node.exe
 0002:0000b108       \177node_NULL_THUNK_DATA_DLN 0000000180028108     node:node.exe
 0002:0000bf20       \177node_NULL_THUNK_DATA_DLB 0000000180028f20     node:node.exe
 0002:0000c42c       __IMPORT_DESCRIPTOR_KERNEL32 000000018002942c     kernel32:KERNEL32.dll
 0002:0000c440       __NULL_IMPORT_DESCRIPTOR   0000000180029440     kernel32:KERNEL32.dll
 0003:00000000       __scrt_native_dllmain_reason 000000018002a000     LIBCMT:utility.obj
 0003:00000008       __security_cookie_complement 000000018002a008     LIBCMT:gs_cookie.obj
 0003:00000010       __security_cookie          000000018002a010     LIBCMT:gs_cookie.obj
 0003:00000018       __isa_available            000000018002a018     LIBCMT:cpu_disp.obj
 0003:0000001c       __isa_enabled              000000018002a01c     LIBCMT:cpu_disp.obj
 0003:00000020       __memcpy_nt_iters          000000018002a020     LIBCMT:cpu_disp.obj
 0003:00000040       __abort_behavior           000000018002a040     libucrt:abort.obj
 0003:00000060       _iob                       000000018002a060     libucrt:_file.obj
 0003:00000170       __acrt_initial_locale_data 000000018002a170     libucrt:nlsdata.obj
 0003:000002c8       __acrt_initial_locale_pointers 000000018002a2c8     libucrt:nlsdata.obj
 0003:000002d8       __acrt_wide_c_locale_string 000000018002a2d8     libucrt:nlsdata.obj
 0003:000002e0       __badioinfo                000000018002a2e0     libucrt:ioinit.obj
 0003:00000640       __acrt_initial_multibyte_data 000000018002a640     libucrt:mbctype.obj
 0003:00000868       _pwctype                   000000018002a868     libucrt:ctype.obj
 0003:00000870       __globallocalestatus       000000018002a870     libucrt:glstatus.obj
 0003:00000880       __acrt_lconv_c             000000018002a880     libucrt:localeconv.obj
 0003:00000918       __acrt_lconv_static_decimal 000000018002a918     libucrt:localeconv.obj
 0003:0000091c       __acrt_lconv_static_W_decimal 000000018002a91c     libucrt:localeconv.obj
 0003:00000920       _lookuptrailbytes          000000018002a920     libucrt:read.obj
 0003:00000a40       _fltused                   000000018002aa40     LIBCMT:fltused.obj
 0003:00000a90       ??_R0?AVbad_alloc@std@@@8  000000018002aa90     libcpmt:xthrow.obj
 0003:00000ab8       ??_R0?AVexception@std@@@8  000000018002aab8     libcpmt:xthrow.obj
 0003:00000ae0       ??_R0?AVlogic_error@std@@@8 000000018002aae0     libcpmt:xthrow.obj
 0003:00000b08       ??_R0?AVlength_error@std@@@8 000000018002ab08     libcpmt:xthrow.obj
 0003:00000b30       ??_R0?AVtype_info@@@8      000000018002ab30     LIBCMT:std_type_info_static.obj
 0003:00000b50       ??_R0?AVbad_array_new_length@std@@@8 000000018002ab50     LIBCMT:throw_bad_alloc.obj
 0003:00000b80       ??_R0?AVbad_exception@std@@@8 000000018002ab80     libvcruntime:frame.obj
 0003:00000ba8       ??_R0?AVMsgpackException@@@8 000000018002aba8     msgpack.obj
 0003:00000bd0       __imp_?Value@External@v8@@QEBAPEAXXZ 000000018002abd0     node:node.exe
 0003:00000bd8       __imp_?New@External@v8@@SA?AV?$Local@VExternal@v8@@@2@PEAVIsolate@2@PEAX@Z 000000018002abd8     node:node.exe
 0003:00000be0       __imp_?New@Integer@v8@@SA?AV?$Local@VInteger@v8@@@2@PEAVIsolate@2@H@Z 000000018002abe0     node:node.exe
 0003:00000be8       __imp_?ThrowException@Isolate@v8@@QEAA?AV?$Local@VValue@v8@@@2@V32@@Z 000000018002abe8     node:node.exe
 0003:00000bf0       __imp_?GetCurrentContext@Isolate@v8@@QEAA?AV?$Local@VContext@v8@@@2@XZ 000000018002abf0     node:node.exe
 0003:00000bf8       __imp_?GetCurrent@Isolate@v8@@SAPEAV12@XZ 000000018002abf8     node:node.exe
 0003:00000c00       __imp_?CreateHandle@HandleScope@v8@@KAPEAPEAVObject@internal@2@PEAVIsolate@42@PEAV342@@Z 000000018002ac00     node:node.exe
 0003:00000c08       __imp_?CreateHandle@HandleScope@v8@@CAPEAPEAVObject@internal@2@PEAVHeapObject@42@PEAV342@@Z 000000018002ac08     node:node.exe
 0003:00000c10       __imp_??1HandleScope@v8@@QEAA@XZ 000000018002ac10     node:node.exe
 0003:00000c18       __imp_??0HandleScope@v8@@QEAA@PEAVIsolate@1@@Z 000000018002ac18     node:node.exe
 0003:00000c20       __imp_?Error@Exception@v8@@SA?AV?$Local@VValue@v8@@@2@V?$Local@VString@v8@@@2@@Z 000000018002ac20     node:node.exe
 0003:00000c28       __imp_?TypeError@Exception@v8@@SA?AV?$Local@VValue@v8@@@2@V?$Local@VString@v8@@@2@@Z 000000018002ac28     node:node.exe
 0003:00000c30       __imp_?New@Array@v8@@SA?AV?$Local@VArray@v8@@@2@PEAVIsolate@2@H@Z 000000018002ac30     node:node.exe
 0003:00000c38       __imp_?Length@Array@v8@@QEBAIXZ 000000018002ac38     node:node.exe
 0003:00000c40       __imp_?GetFunction@FunctionTemplate@v8@@QEAA?AV?$Local@VFunction@v8@@@2@XZ 000000018002ac40     node:node.exe
 0003:00000c48       __imp_?GetFunction@FunctionTemplate@v8@@QEAA?AV?$MaybeLocal@VFunction@v8@@@2@V?$Local@VContext@v8@@@2@@Z 000000018002ac48     node:node.exe
 0003:00000c50       __imp_?New@FunctionTemplate@v8@@SA?AV?$Local@VFunctionTemplate@v8@@@2@PEAVIsolate@2@P6AXAEBV?$FunctionCallbackInfo@VValue@v8@@@2@@ZV?$Local@VValue@v8@@@2@V?$Local@VSignature@v8@@@2@HW4ConstructorBehavior@2@W4SideEffectType@2@@Z 000000018002ac50     node:node.exe
 0003:00000c58       __imp_?ToLocalEmpty@V8@v8@@CAXXZ 000000018002ac58     node:node.exe
 0003:00000c60       __imp_?DisposeGlobal@V8@v8@@CAXPEAPEAVObject@internal@2@@Z 000000018002ac60     node:node.exe
 0003:00000c68       __imp_?GlobalizeReference@V8@v8@@CAPEAPEAVObject@internal@2@PEAVIsolate@42@PEAPEAV342@@Z 000000018002ac68     node:node.exe
 0003:00000c70       __imp_?NumberValue@Value@v8@@QEBANXZ 000000018002ac70     node:node.exe
 0003:00000c78       __imp_?BooleanValue@Value@v8@@QEBA_NXZ 000000018002ac78     node:node.exe
 0003:00000c80       __imp_?ToInteger@Value@v8@@QEBA?AV?$MaybeLocal@VInteger@v8@@@2@V?$Local@VContext@v8@@@2@@Z 000000018002ac80     node:node.exe
 0003:00000c88       __imp_?IsDate@Value@v8@@QEBA_NXZ 000000018002ac88     node:node.exe
 0003:00000c90       __imp_?IsNumber@Value@v8@@QEBA_NXZ 000000018002ac90     node:node.exe
 0003:00000c98       __imp_?IsBoolean@Value@v8@@QEBA_NXZ 000000018002ac98     node:node.exe
 0003:00000ca0       __imp_?IsArray@Value@v8@@QEBA_NXZ 000000018002aca0     node:node.exe
 0003:00000ca8       __imp_?IsFunction@Value@v8@@QEBA_NXZ 000000018002aca8     node:node.exe
 0003:00000cb0       __imp_?Escape@EscapableHandleScope@v8@@AEAAPEAPEAVObject@internal@2@PEAPEAV342@@Z 000000018002acb0     node:node.exe
 0003:00000cb8       __imp_??0EscapableHandleScope@v8@@QEAA@PEAVIsolate@1@@Z 000000018002acb8     node:node.exe
 0003:00000cc0       __imp_?NewFromUtf8@String@v8@@SA?AV?$MaybeLocal@VString@v8@@@2@PEAVIsolate@2@PEBDW4NewStringType@2@H@Z 000000018002acc0     node:node.exe
 0003:00000cc8       __imp_?New@Number@v8@@SA?AV?$Local@VNumber@v8@@@2@PEAVIsolate@2@N@Z 000000018002acc8     node:node.exe
 0003:00000cd0       __imp_?SlowGetInternalField@Object@v8@@AEAA?AV?$Local@VValue@v8@@@2@H@Z 000000018002acd0     node:node.exe
 0003:00000cd8       __imp_?New@Object@v8@@SA?AV?$Local@VObject@v8@@@2@PEAVIsolate@2@@Z 000000018002acd8     node:node.exe
 0003:00000ce0       __imp_?SetInternalField@Object@v8@@QEAAXHV?$Local@VValue@v8@@@2@@Z 000000018002ace0     node:node.exe
 0003:00000ce8       __imp_?GetPropertyNames@Object@v8@@QEAA?AV?$Local@VArray@v8@@@2@XZ 000000018002ace8     node:node.exe
 0003:00000cf0       __imp_?Has@Object@v8@@QEAA_NV?$Local@VValue@v8@@@2@@Z 000000018002acf0     node:node.exe
 0003:00000cf8       __imp_?Get@Object@v8@@QEAA?AV?$Local@VValue@v8@@@2@V32@@Z 000000018002acf8     node:node.exe
 0003:00000d00       __imp_?Get@Object@v8@@QEAA?AV?$Local@VValue@v8@@@2@I@Z 000000018002ad00     node:node.exe
 0003:00000d08       __imp_?Set@Object@v8@@QEAA_NV?$Local@VValue@v8@@@2@0@Z 000000018002ad08     node:node.exe
 0003:00000d10       __imp_?Set@Object@v8@@QEAA?AV?$Maybe@_N@2@V?$Local@VContext@v8@@@2@V?$Local@VValue@v8@@@2@1@Z 000000018002ad10     node:node.exe
 0003:00000d18       __imp_?Set@Object@v8@@QEAA_NIV?$Local@VValue@v8@@@2@@Z 000000018002ad18     node:node.exe
 0003:00000d20       __imp_?Call@Function@v8@@QEAA?AV?$Local@VValue@v8@@@2@V32@HQEAV32@@Z 000000018002ad20     node:node.exe
 0003:00000d28       __imp_?SetInternalFieldCount@ObjectTemplate@v8@@QEAAXH@Z 000000018002ad28     node:node.exe
 0003:00000d30       __imp_?NewInstance@ObjectTemplate@v8@@QEAA?AV?$MaybeLocal@VObject@v8@@@2@V?$Local@VContext@v8@@@2@@Z 000000018002ad30     node:node.exe
 0003:00000d38       __imp_?New@ObjectTemplate@v8@@SA?AV?$Local@VObjectTemplate@v8@@@2@PEAVIsolate@2@V?$Local@VFunctionTemplate@v8@@@2@@Z 000000018002ad38     node:node.exe
 0003:00000d40       __imp_?DecodeBytes@node@@YA_JPEAVIsolate@v8@@V?$Local@VValue@v8@@@3@W4encoding@1@@Z 000000018002ad40     node:node.exe
 0003:00000d48       __imp_?DecodeWrite@node@@YA_JPEAVIsolate@v8@@PEAD_KV?$Local@VValue@v8@@@3@W4encoding@1@@Z 000000018002ad48     node:node.exe
 0003:00000d50       __imp_node_module_register 000000018002ad50     node:node.exe
 0003:00000d58       __imp_?HasInstance@Buffer@node@@YA_NV?$Local@VValue@v8@@@v8@@@Z 000000018002ad58     node:node.exe
 0003:00000d60       __imp_?New@Buffer@node@@YA?AV?$MaybeLocal@VObject@v8@@@v8@@PEAVIsolate@4@PEAD_KP6AX1PEAX@Z3@Z 000000018002ad60     node:node.exe
 0003:00000d68       __imp_?Data@Buffer@node@@YAPEADV?$Local@VObject@v8@@@v8@@@Z 000000018002ad68     node:node.exe
 0003:00000d70       __imp_?Copy@Buffer@node@@YA?AV?$MaybeLocal@VObject@v8@@@v8@@PEAVIsolate@4@PEBD_K@Z 000000018002ad70     node:node.exe
 0003:00000d78       __imp_?Length@Buffer@node@@YA_KV?$Local@VObject@v8@@@v8@@@Z 000000018002ad78     node:node.exe
 0003:00000d80       __imp_?ToObject@Value@v8@@QEBA?AV?$Local@VObject@v8@@@2@XZ 000000018002ad80     node:node.exe
 0003:00000d88       __imp_??1EscapableHandleScope@v8@@QEAA@XZ 000000018002ad88     node:node.exe
 0003:00000d90       \177node_NULL_THUNK_DATA_DLA 000000018002ad90     node:node.exe
 0003:00000da0       __hmod__node_exe           000000018002ada0     node:node.exe
 0003:00000da8       __scrt_current_native_startup_state 000000018002ada8     LIBCMT:utility.obj
 0003:00000db0       __scrt_native_startup_lock 000000018002adb0     LIBCMT:utility.obj
 0003:00001370       __favor                    000000018002b370     LIBCMT:cpu_disp.obj
 0003:00001374       __scrt_debugger_hook_flag  000000018002b374     LIBCMT:utility_desktop.obj
 0003:00001380       ?__type_info_root_node@@3U__type_info_node@@A 000000018002b380     LIBCMT:tncleanup.obj
 0003:00001390       ?_OptionsStorage@?1??__local_stdio_scanf_options@@9@4_KA 000000018002b390     LIBCMT:default_local_stdio_options.obj
 0003:00001398       ?__WinRTOutOfMemoryExceptionCallback@@3P6APEAXXZEA 000000018002b398     libvcruntime:ehhelpers.obj
 0003:000014a0       __pPurecall                000000018002b4a0     libvcruntime:purevirt_data.obj
 0003:000014a8       ?pArgList@UnDecorator@@0PEAVReplicator@@EA 000000018002b4a8     libvcruntime:undname.obj
 0003:000014b0       ?pZNameList@UnDecorator@@0PEAVReplicator@@EA 000000018002b4b0     libvcruntime:undname.obj
 0003:000014b8       ?pTemplateArgList@UnDecorator@@0PEAVReplicator@@EA 000000018002b4b8     libvcruntime:undname.obj
 0003:000014c0       ?gName@UnDecorator@@0PEBDEB 000000018002b4c0     libvcruntime:undname.obj
 0003:000014c8       ?name@UnDecorator@@0PEBDEB 000000018002b4c8     libvcruntime:undname.obj
 0003:000014d0       ?disableFlags@UnDecorator@@0KA 000000018002b4d0     libvcruntime:undname.obj
 0003:000014d4       ?fExplicitTemplateParams@UnDecorator@@0_NA 000000018002b4d4     libvcruntime:undname.obj
 0003:000014d5       ?fGetTemplateArgumentList@UnDecorator@@0_NA 000000018002b4d5     libvcruntime:undname.obj
 0003:000014d8       ?m_pGetParameter@UnDecorator@@0P6APEADJ@ZEA 000000018002b4d8     libvcruntime:undname.obj
 0003:000014e0       ?m_CHPENameOffset@UnDecorator@@0KA 000000018002b4e0     libvcruntime:undname.obj
 0003:000014e4       ?m_recursionLevel@UnDecorator@@0KA 000000018002b4e4     libvcruntime:undname.obj
 0003:00001530       ?c_exit_complete@?1???R<lambda_6e4b09c48022b2350581041d5f6b0c4c>@@QEBA@XZ@4_NA 000000018002b530     libucrt:exit.obj
 0003:00001648       _environ_table             000000018002b648     libucrt:environment_initialization.obj
 0003:00001650       _wenviron_table            000000018002b650     libucrt:environment_initialization.obj
 0003:00001658       __dcrt_initial_wide_environment 000000018002b658     libucrt:environment_initialization.obj
 0003:00001660       __dcrt_initial_narrow_environment 000000018002b660     libucrt:environment_initialization.obj
 0003:00001668       __acrt_atexit_table        000000018002b668     libucrt:onexit.obj
 0003:00001680       __acrt_at_quick_exit_table 000000018002b680     libucrt:onexit.obj
 0003:000016a0       _nstream                   000000018002b6a0     libucrt:_file.obj
 0003:000016a8       __piob                     000000018002b6a8     libucrt:_file.obj
 0003:000016b0       _cflush                    000000018002b6b0     libucrt:_file.obj
 0003:000016d8       __acrt_locale_changed_data 000000018002b6d8     libucrt:wsetlocale.obj
 0003:000016e0       __acrt_current_locale_data 000000018002b6e0     libucrt:nlsdata.obj
 0003:000016f8       __acrt_stdout_buffer       000000018002b6f8     libucrt:_sftbuf.obj
 0003:00001700       __acrt_stderr_buffer       000000018002b700     libucrt:_sftbuf.obj
 0003:00001710       __pioinfo                  000000018002b710     libucrt:ioinit.obj
 0003:00001b10       _nhandle                   000000018002bb10     libucrt:ioinit.obj
 0003:00001d60       _mbctype                   000000018002bd60     libucrt:mbctype.obj
 0003:00001d68       _mbcasemap                 000000018002bd68     libucrt:mbctype.obj
 0003:00001d70       __acrt_current_multibyte_data 000000018002bd70     libucrt:mbctype.obj
 0003:00001d80       _pgmptr                    000000018002bd80     libucrt:argv_data.obj
 0003:00001d88       __argc                     000000018002bd88     libucrt:argv_data.obj
 0003:00001d90       __argv                     000000018002bd90     libucrt:argv_data.obj
 0003:00001d98       __wargv                    000000018002bd98     libucrt:argv_data.obj
 0003:00001da0       _acmdln                    000000018002bda0     libucrt:argv_data.obj
 0003:00001da8       _wcmdln                    000000018002bda8     libucrt:argv_data.obj
 0003:00001f60       __acrt_heap                000000018002bf60     libucrt:heap_handle.obj
 0003:00001f74       __acrt_lconv_static_null   000000018002bf74     libucrt:localeconv.obj
 0003:00001f78       __acrt_lconv_static_W_null 000000018002bf78     libucrt:localeconv.obj
 0003:00001f88       __fma3_is_available        000000018002bf88     libucrt:fma3_available.obj
 0003:00001f8c       __use_fma3_lib             000000018002bf8c     libucrt:fma3_available.obj
 0003:00001f90       ?DloadKernel32@@3PEAUHINSTANCE__@@EA 000000018002bf90     DelayImp:delayhlp.obj
 0003:00001f98       ?DloadAcquireSRWLockExclusive@@3P6AXPEA_K@ZEA 000000018002bf98     DelayImp:delayhlp.obj
 0003:00001fa0       ?DloadReleaseSRWLockExclusive@@3P6AXPEA_K@ZEA 000000018002bfa0     DelayImp:delayhlp.obj
 0003:00001fa8       ?DloadSrwLock@@3_KA        000000018002bfa8     DelayImp:delayhlp.obj
 0003:00001fb0       ?DloadSectionLockCount@@3KA 000000018002bfb0     DelayImp:delayhlp.obj
 0003:00001fb4       ?DloadSectionOldProtection@@3KA 000000018002bfb4     DelayImp:delayhlp.obj
 0003:00001fb8       ?DloadSectionCommitPermanent@@3KA 000000018002bfb8     DelayImp:delayhlp.obj
 0003:00001ff0       ?_OptionsStorage@?1??__local_stdio_printf_options@@9@4_KA 000000018002bff0     libmsgpack:objectc.obj
 0003:00001ff8       __dyn_tls_init_callback    000000018002bff8     <common>
 0003:00002000       __scrt_ucrt_dll_is_in_use  000000018002c000     <common>

 entry point at        0001:00004de8

 Static symbols

 0000:fffcf000       .debug$S                   0000000180000000     kernel32:KERNEL32.dll
 0000:fffcf000       .debug$S                   0000000180000000     node:node.exe
 0000:fffcf000       .debug$S                   0000000180000000     node:node.exe
 0000:fffcf000       .debug$S                   0000000180000000     node:node.exe
 0000:fffcf000       .debug$S                   0000000180000000     node:node.exe
 0000:fffcf000       .debug$S                   0000000180000000     node:node.exe
 0000:fffcf000       .debug$S                   0000000180000000     node:node.exe
 0000:fffcf000       .debug$S                   0000000180000000     node:node.exe
 0000:fffcf000       .debug$S                   0000000180000000     node:node.exe
 0000:fffcf000       .debug$S                   0000000180000000     node:node.exe
 0000:fffcf000       .debug$S                   0000000180000000     node:node.exe
 0000:fffcf000       .debug$S                   0000000180000000     node:node.exe
 0000:fffcf000       .debug$S                   0000000180000000     node:node.exe
 0000:fffcf000       .debug$S                   0000000180000000     node:node.exe
 0000:fffcf000       .debug$S                   0000000180000000     node:node.exe
 0000:fffcf000       .debug$S                   0000000180000000     node:node.exe
 0000:fffcf000       .debug$S                   0000000180000000     node:node.exe
 0000:fffcf000       .debug$S                   0000000180000000     kernel32:KERNEL32.dll
 0000:fffcf000       .debug$S                   0000000180000000     kernel32:KERNEL32.dll
 0000:fffcf000       .debug$S                   0000000180000000     kernel32:KERNEL32.dll
 0000:fffcf000       .debug$S                   0000000180000000     kernel32:KERNEL32.dll
 0000:fffcf000       .debug$S                   0000000180000000     node:node.exe
 0000:fffcf000       .debug$S                   0000000180000000     node:node.exe
 0000:fffcf000       .debug$S                   0000000180000000     node:node.exe
 0000:fffcf000       .debug$S                   0000000180000000     node:node.exe
 0000:fffcf000       .debug$S                   0000000180000000     node:node.exe
 0000:fffcf000       .debug$S                   0000000180000000     node:node.exe
 0000:fffcf000       .debug$S                   0000000180000000     node:node.exe
 0000:fffcf000       .debug$S                   0000000180000000     node:node.exe
 0000:fffcf000       .debug$S                   0000000180000000     node:node.exe
 0000:fffcf000       .debug$S                   0000000180000000     node:node.exe
 0000:fffcf000       .debug$S                   0000000180000000     node:node.exe
 0000:fffcf000       .debug$S                   0000000180000000     node:node.exe
 0000:fffcf000       .debug$S                   0000000180000000     node:node.exe
 0000:fffcf000       .debug$S                   0000000180000000     node:node.exe
 0000:fffcf000       .debug$S                   0000000180000000     node:node.exe
 0000:fffcf000       .debug$S                   0000000180000000     kernel32:KERNEL32.dll
 0000:fffcf000       .debug$S                   0000000180000000     node:node.exe
 0000:fffcf000       .debug$S                   0000000180000000     kernel32:KERNEL32.dll
 0000:fffcf000       .debug$S                   0000000180000000     node:node.exe
 0000:fffcf000       .debug$S                   0000000180000000     kernel32:KERNEL32.dll
 0000:fffcf000       .debug$S                   0000000180000000     node:node.exe
 0000:fffcf000       .debug$S                   0000000180000000     node:node.exe
 0000:fffcf000       .debug$S                   0000000180000000     node:node.exe
 0000:fffcf000       .debug$S                   0000000180000000     node:node.exe
 0000:fffcf000       .debug$S                   0000000180000000     node:node.exe
 0000:fffcf000       .debug$S                   0000000180000000     kernel32:KERNEL32.dll
 0000:fffcf000       .debug$S                   0000000180000000     node:node.exe
 0000:fffcf000       .debug$S                   0000000180000000     kernel32:KERNEL32.dll
 0000:fffcf000       .debug$S                   0000000180000000     node:node.exe
 0000:fffcf000       .debug$S                   0000000180000000     kernel32:KERNEL32.dll
 0000:fffcf000       .debug$S                   0000000180000000     node:node.exe
 0000:fffcf000       .debug$S                   0000000180000000     node:node.exe
 0000:fffcf000       .debug$S                   0000000180000000     node:node.exe
 0000:fffcf000       .debug$S                   0000000180000000     node:node.exe
 0000:fffcf000       .debug$S                   0000000180000000     kernel32:KERNEL32.dll
 0000:fffcf000       .debug$S                   0000000180000000     kernel32:KERNEL32.dll
 0000:fffcf000       .debug$S                   0000000180000000     kernel32:KERNEL32.dll
 0000:fffcf000       .debug$S                   0000000180000000     kernel32:KERNEL32.dll
 0000:fffcf000       .debug$S                   0000000180000000     kernel32:KERNEL32.dll
 0000:fffcf000       .debug$S                   0000000180000000     kernel32:KERNEL32.dll
 0000:fffcf000       .debug$S                   0000000180000000     node:node.exe
 0000:fffcf000       .debug$S                   0000000180000000     kernel32:KERNEL32.dll
 0000:fffcf000       .debug$S                   0000000180000000     node:node.exe
 0000:fffcf000       .debug$S                   0000000180000000     kernel32:KERNEL32.dll
 0000:fffcf000       .debug$S                   0000000180000000     node:node.exe
 0000:fffcf000       .debug$S                   0000000180000000     node:node.exe
 0000:fffcf000       .debug$S                   0000000180000000     node:node.exe
 0000:fffcf000       .debug$S                   0000000180000000     node:node.exe
 0000:fffcf000       .debug$S                   0000000180000000     node:node.exe
 0000:fffcf000       .debug$S                   0000000180000000     kernel32:KERNEL32.dll
 0000:fffcf000       .debug$S                   0000000180000000     node:node.exe
 0000:fffcf000       .debug$S                   0000000180000000     node:node.exe
 0000:fffcf000       .debug$S                   0000000180000000     node:node.exe
 0000:fffcf000       .debug$S                   0000000180000000     kernel32:KERNEL32.dll
 0000:fffcf000       .debug$S                   0000000180000000     kernel32:KERNEL32.dll
 0000:fffcf000       .debug$S                   0000000180000000     node:node.exe
 0000:fffcf000       .debug$S                   0000000180000000     node:node.exe
 0000:fffcf000       .debug$S                   0000000180000000     node:node.exe
 0000:fffcf000       .debug$S                   0000000180000000     node:node.exe
 0000:fffcf000       .debug$S                   0000000180000000     kernel32:KERNEL32.dll
 0000:fffcf000       .debug$S                   0000000180000000     node:node.exe
 0000:fffcf000       .debug$S                   0000000180000000     kernel32:KERNEL32.dll
 0000:fffcf000       .debug$S                   0000000180000000     kernel32:KERNEL32.dll
 0000:fffcf000       .debug$S                   0000000180000000     kernel32:KERNEL32.dll
 0000:fffcf000       .debug$S                   0000000180000000     kernel32:KERNEL32.dll
 0000:fffcf000       .debug$S                   0000000180000000     node:node.exe
 0000:fffcf000       .debug$S                   0000000180000000     kernel32:KERNEL32.dll
 0000:fffcf000       .debug$S                   0000000180000000     node:node.exe
 0000:fffcf000       .debug$S                   0000000180000000     kernel32:KERNEL32.dll
 0000:fffcf000       .debug$S                   0000000180000000     kernel32:KERNEL32.dll
 0000:fffcf000       .debug$S                   0000000180000000     kernel32:KERNEL32.dll
 0000:fffcf000       .debug$S                   0000000180000000     node:node.exe
 0000:fffcf000       .debug$S                   0000000180000000     kernel32:KERNEL32.dll
 0000:fffcf000       .debug$S                   0000000180000000     node:node.exe
 0000:fffcf000       .debug$S                   0000000180000000     kernel32:KERNEL32.dll
 0000:fffcf000       .debug$S                   0000000180000000     kernel32:KERNEL32.dll
 0000:fffcf000       .debug$S                   0000000180000000     kernel32:KERNEL32.dll
 0000:fffcf000       .debug$S                   0000000180000000     node:node.exe
 0000:fffcf000       .debug$S                   0000000180000000     kernel32:KERNEL32.dll
 0000:fffcf000       .debug$S                   0000000180000000     kernel32:KERNEL32.dll
 0000:fffcf000       .debug$S                   0000000180000000     kernel32:KERNEL32.dll
 0000:fffcf000       .debug$S                   0000000180000000     kernel32:KERNEL32.dll
 0000:fffcf000       .debug$S                   0000000180000000     node:node.exe
 0000:fffcf000       .debug$S                   0000000180000000     kernel32:KERNEL32.dll
 0000:fffcf000       .debug$S                   0000000180000000     node:node.exe
 0000:fffcf000       .debug$S                   0000000180000000     msgpackBinding.exp
 0000:fffcf000       .debug$S                   0000000180000000     node:node.exe
 0000:fffcf000       .debug$S                   0000000180000000     kernel32:KERNEL32.dll
 0000:fffcf000       .debug$S                   0000000180000000     node:node.exe
 0000:fffcf000       .debug$S                   0000000180000000     kernel32:KERNEL32.dll
 0000:fffcf000       .debug$S                   0000000180000000     kernel32:KERNEL32.dll
 0000:fffcf000       .debug$S                   0000000180000000     kernel32:KERNEL32.dll
 0000:fffcf000       .debug$S                   0000000180000000     kernel32:KERNEL32.dll
 0000:fffcf000       .debug$S                   0000000180000000     kernel32:KERNEL32.dll
 0000:fffcf000       .debug$S                   0000000180000000     kernel32:KERNEL32.dll
 0000:fffcf000       .debug$S                   0000000180000000     kernel32:KERNEL32.dll
 0000:fffcf000       .debug$S                   0000000180000000     kernel32:KERNEL32.dll
 0000:fffcf000       .debug$S                   0000000180000000     kernel32:KERNEL32.dll
 0000:fffcf000       .debug$S                   0000000180000000     kernel32:KERNEL32.dll
 0000:fffcf000       .debug$S                   0000000180000000     kernel32:KERNEL32.dll
 0000:fffcf000       .debug$S                   0000000180000000     kernel32:KERNEL32.dll
 0000:fffcf000       .debug$S                   0000000180000000     kernel32:KERNEL32.dll
 0000:fffcf000       .debug$S                   0000000180000000     kernel32:KERNEL32.dll
 0000:fffcf000       .debug$S                   0000000180000000     kernel32:KERNEL32.dll
 0000:fffcf000       .debug$S                   0000000180000000     kernel32:KERNEL32.dll
 0000:fffcf000       .debug$S                   0000000180000000     kernel32:KERNEL32.dll
 0000:fffcf000       .debug$S                   0000000180000000     kernel32:KERNEL32.dll
 0000:fffcf000       .debug$S                   0000000180000000     kernel32:KERNEL32.dll
 0000:fffcf000       .debug$S                   0000000180000000     kernel32:KERNEL32.dll
 0000:fffcf000       .debug$S                   0000000180000000     kernel32:KERNEL32.dll
 0000:fffcf000       .debug$S                   0000000180000000     kernel32:KERNEL32.dll
 0000:fffcf000       .debug$S                   0000000180000000     kernel32:KERNEL32.dll
 0000:fffcf000       .debug$S                   0000000180000000     kernel32:KERNEL32.dll
 0000:fffcf000       .debug$S                   0000000180000000     kernel32:KERNEL32.dll
 0000:fffcf000       .debug$S                   0000000180000000     kernel32:KERNEL32.dll
 0000:fffcf000       .debug$S                   0000000180000000     kernel32:KERNEL32.dll
 0000:fffcf000       .debug$S                   0000000180000000     kernel32:KERNEL32.dll
 0000:fffcf000       .debug$S                   0000000180000000     kernel32:KERNEL32.dll
 0000:fffcf000       .debug$S                   0000000180000000     kernel32:KERNEL32.dll
 0000:fffcf000       .debug$S                   0000000180000000     kernel32:KERNEL32.dll
 0000:fffcf000       .debug$S                   0000000180000000     kernel32:KERNEL32.dll
 0000:fffcf000       .debug$S                   0000000180000000     kernel32:KERNEL32.dll
 0000:fffcf000       .debug$S                   0000000180000000     kernel32:KERNEL32.dll
 0000:fffcf000       .debug$S                   0000000180000000     kernel32:KERNEL32.dll
 0000:fffcf000       .debug$S                   0000000180000000     kernel32:KERNEL32.dll
 0000:fffcf000       .debug$S                   0000000180000000     kernel32:KERNEL32.dll
 0000:fffcf000       .debug$S                   0000000180000000     kernel32:KERNEL32.dll
 0000:fffcf000       .debug$S                   0000000180000000     kernel32:KERNEL32.dll
 0000:fffcf000       .debug$S                   0000000180000000     kernel32:KERNEL32.dll
 0000:fffcf000       .debug$S                   0000000180000000     kernel32:KERNEL32.dll
 0000:fffcf000       .debug$S                   0000000180000000     kernel32:KERNEL32.dll
 0000:fffcf000       .debug$S                   0000000180000000     kernel32:KERNEL32.dll
 0000:fffcf000       .debug$S                   0000000180000000     kernel32:KERNEL32.dll
 0000:fffcf000       .debug$S                   0000000180000000     kernel32:KERNEL32.dll
 0000:fffcf000       .debug$S                   0000000180000000     kernel32:KERNEL32.dll
 0000:fffcf000       .debug$S                   0000000180000000     kernel32:KERNEL32.dll
 0000:fffcf000       .debug$S                   0000000180000000     kernel32:KERNEL32.dll
 0001:00000000       ??__Emsgpack_unpack_template@@YAXXZ 0000000180001000 f   msgpack.obj
 0001:00000020       ??__Esbuffers@@YAXXZ       0000000180001020 f   msgpack.obj
 0001:00000090       msgpack_sbuffer_write      0000000180001090 f   msgpack.obj
 0001:00000140       ?FunctionCallbackWrapper@imp@Nan@@YAXAEBV?$FunctionCallbackInfo@VValue@v8@@@v8@@@Z 0000000180001140 f   msgpack.obj
 0001:000003f0       ?_free_sbuf@@YAXPEADPEAX@Z 00000001800013f0 f   msgpack.obj
 0001:00000510       ?v8_to_msgpack@@YAXV?$Local@VValue@v8@@@v8@@PEAUmsgpack_object@@PEAUmsgpack_zone@@_K@Z 0000000180001510 f   msgpack.obj
 0001:00000b40       ?msgpack_to_v8@@YA?AV?$Local@VValue@v8@@@v8@@PEAUmsgpack_object@@@Z 0000000180001b40 f   msgpack.obj
 0001:00000d98       $LN158                     0000000180001d98     msgpack.obj
 0001:00000dc0       ?pack@@YAXAEBV?$FunctionCallbackInfo@VValue@v8@@@Nan@@@Z 0000000180001dc0 f   msgpack.obj
 0001:000011c0       ?unpack@@YAXAEBV?$FunctionCallbackInfo@VValue@v8@@@Nan@@@Z 00000001800021c0 f   msgpack.obj
 0001:00001980       _register_msgpackBinding   0000000180002980 f   msgpack.obj
 0001:00001d70       ?load_exe_hook@@YAP6A_JXZIPEAUDelayLoadInfo@@@Z 0000000180002d70 f   win_delay_load_hook.obj
 0001:00002070       msgpack_zone_push_finalizer 0000000180003070 f   libmsgpack:unpack.obj
 0001:00002150       ?template_execute@@YAHPEAUtemplate_context@@PEBD_KPEA_K@Z 0000000180003150 f   libmsgpack:unpack.obj
 0001:00002bd0       $LN446                     0000000180003bd0     libmsgpack:unpack.obj
 0001:00002bf8       $LN445                     0000000180003bf8     libmsgpack:unpack.obj
 0001:00002c18       $LN444                     0000000180003c18     libmsgpack:unpack.obj
 0001:00002ca0       ?decr_count@@YAXPEAX@Z     0000000180003ca0 f   libmsgpack:unpack.obj
 0001:00003550       msgpack_pack_int64         0000000180004550 f   libmsgpack:objectc.obj
 0001:00003b6c       $LN154                     0000000180004b6c     libmsgpack:objectc.obj
 0001:00003ed4       $LN32                      0000000180004ed4     libmsgpack:objectc.obj
 0001:000040f0       $LN52                      00000001800050f0     libmsgpack:objectc.obj
 0001:00004630       $$000000                   0000000180005630     LIBCMT:amdsecgs.obj
 0001:00004ab8       ?dllmain_crt_dispatch@@YAHQEAUHINSTANCE__@@KQEAX@Z 0000000180005ab8 f   LIBCMT:dll_dllmain.obj
 0001:00004b08       ?dllmain_crt_process_attach@@YAHQEAUHINSTANCE__@@QEAX@Z 0000000180005b08 f   LIBCMT:dll_dllmain.obj
 0001:00004c24       ?dllmain_crt_process_detach@@YAH_N@Z 0000000180005c24 f   LIBCMT:dll_dllmain.obj
 0001:00004cb4       ?dllmain_dispatch@@YAHQEAUHINSTANCE__@@KQEAX@Z 0000000180005cb4 f   LIBCMT:dll_dllmain.obj
 0001:00004fe0       capture_current_context    0000000180005fe0 f   LIBCMT:gs_report.obj
 0001:00005050       capture_previous_context   0000000180006050 f   LIBCMT:gs_report.obj
 0001:00006130       $$000000                   0000000180007130     libvcruntime:memset.obj
 0001:0000622c       MsetTab                    000000018000722c     libvcruntime:memset.obj
 0001:00006620       ??$BuildCatchObjectHelperInternal@V__FrameHandler3@@@@YAHPEAUEHExceptionRecord@@PEAXPEBU_s_HandlerType@@PEBU_s_CatchableType@@@Z 0000000180007620 f   libvcruntime:frame.obj
 0001:00006820       ??$BuildCatchObjectInternal@V__FrameHandler3@@@@YAXPEAUEHExceptionRecord@@PEAXPEBU_s_HandlerType@@PEBU_s_CatchableType@@@Z 0000000180007820 f   libvcruntime:frame.obj
 0001:000068e0       ??$CatchIt@V__FrameHandler3@@@@YAXPEAUEHExceptionRecord@@PEA_KPEAU_CONTEXT@@PEAU_xDISPATCHER_CONTEXT@@PEBU_s_FuncInfo@@PEBU_s_HandlerType@@PEBU_s_CatchableType@@PEBU_s_TryBlockMapEntry@@H1EE@Z 00000001800078e0 f   libvcruntime:frame.obj
 0001:000069b0       ??$FindHandler@V__FrameHandler3@@@@YAXPEAUEHExceptionRecord@@PEA_KPEAU_CONTEXT@@PEAU_xDISPATCHER_CONTEXT@@PEBU_s_FuncInfo@@EH1@Z 00000001800079b0 f   libvcruntime:frame.obj
 0001:00006e14       ??$FindHandlerForForeignException@V__FrameHandler3@@@@YAXPEAUEHExceptionRecord@@PEA_KPEAU_CONTEXT@@PEAU_xDISPATCHER_CONTEXT@@PEBU_s_FuncInfo@@HH1@Z 0000000180007e14 f   libvcruntime:frame.obj
 0001:0000761c       ?ExFilterRethrow@@YAHPEAU_EXCEPTION_POINTERS@@PEAUEHExceptionRecord@@PEAH@Z 000000018000861c f   libvcruntime:frame.obj
 0001:000078d0       ?IsInExceptionSpec@@YAEPEAUEHExceptionRecord@@PEBU_s_ESTypeList@@@Z 00000001800088d0 f   libvcruntime:frame.obj
 0001:000079a8       ?Is_bad_exception_allowed@@YAEPEBU_s_ESTypeList@@@Z 00000001800089a8 f   libvcruntime:frame.obj
 0001:00007ad8       ?try_get_function@@YAPEAXW4function_id@?A0xbfd18cd1@@QEBDQEBW4module_id@2@2@Z 0000000180008ad8 f   libvcruntime:winapi_downlevel.obj
 0001:00007ec0       $$000000                   0000000180008ec0     libvcruntime:notify.obj
 0001:00007f40       $$000000                   0000000180008f40     libvcruntime:handlers.obj
 0001:00007ff0       $$000000                   0000000180008ff0     libvcruntime:memcpy.obj
 0001:000080a7       MoveSmall                  00000001800090a7     libvcruntime:memcpy.obj
 0001:0000847c       ??$common_assert_to_message_box@_W@@YAXQEB_W0IQEAX@Z 000000018000947c f   libucrt:assert.obj
 0001:00008540       ??$common_assert_to_message_box_build_string@_W@@YAXQEA_W_KQEB_W2IQEAX@Z 0000000180009540 f   libucrt:assert.obj
 0001:00008a44       ??$common_assert_to_stderr@_W@@YAXQEB_W0I@Z 0000000180009a44 f   libucrt:assert.obj
 0001:00008bb4       ?get_assert_format@@YAPEB_W_W@Z 0000000180009bb4 f   libucrt:assert.obj
 0001:00009154       ??$?RV<lambda_0d412022a4b28cc8a401ea49574e8ae6>@@AEAV<lambda_a775ed57af18ba8e4d5dc780aa9068fe>@@V<lambda_975a71a6baa488a08f4e15f6b0339b9e>@@@?$__crt_seh_guarded_call@H@@QEAAH$$QEAV<lambda_0d412022a4b28cc8a401ea49574e8ae6>@@AEAV<lambda_a775ed57af18ba8e4d5dc780aa9068fe>@@$$QEAV<lambda_975a71a6baa488a08f4e15f6b0339b9e>@@@Z 000000018000a154 f   libucrt:output.obj
 0001:00009194       ??$?RV<lambda_a62c933ada0517137acf5807a1eeac1f>@@AEAV<lambda_a31071773b9a94e445cbd5d04ef99106>@@V<lambda_56065050dbf3ada7e59a83db45153de3>@@@?$__crt_seh_guarded_call@H@@QEAAH$$QEAV<lambda_a62c933ada0517137acf5807a1eeac1f>@@AEAV<lambda_a31071773b9a94e445cbd5d04ef99106>@@$$QEAV<lambda_56065050dbf3ada7e59a83db45153de3>@@@Z 000000018000a194 f   libucrt:output.obj
 0001:000091d4       ??$common_vsprintf@Vstandard_base@__crt_stdio_output@@_W@@YAH_KQEA_W0QEB_WQEAU__crt_locale_pointers@@QEAD@Z 000000018000a1d4 f   libucrt:output.obj
 0001:00009944       ??R<lambda_a31071773b9a94e445cbd5d04ef99106>@@QEBAHXZ 000000018000a944 f   libucrt:output.obj
 0001:00009a74       ??R<lambda_a775ed57af18ba8e4d5dc780aa9068fe>@@QEBAHXZ 000000018000aa74 f   libucrt:output.obj
 0001:0000c5f0       ??$?RV<lambda_bdbcead8b570fa3d5ec6d9679862a6e5>@@AEAV<lambda_96f4279ff90247a4c5c5d9824f56f8c1>@@V<lambda_4606be27f17b5e5579e09050fab91818>@@@?$__crt_seh_guarded_call@_K@@QEAA_K$$QEAV<lambda_bdbcead8b570fa3d5ec6d9679862a6e5>@@AEAV<lambda_96f4279ff90247a4c5c5d9824f56f8c1>@@$$QEAV<lambda_4606be27f17b5e5579e09050fab91818>@@@Z 000000018000d5f0 f   libucrt:fwrite.obj
 0001:0000c630       ??R<lambda_96f4279ff90247a4c5c5d9824f56f8c1>@@QEBA_KXZ 000000018000d630 f   libucrt:fwrite.obj
 0001:0000cac8       ??$?RV<lambda_d80eeec6fff315bfe5c115232f3240e3>@@AEAV<lambda_6e4b09c48022b2350581041d5f6b0c4c>@@V<lambda_2358e3775559c9db80273638284d5e45>@@@?$__crt_seh_guarded_call@X@@QEAAX$$QEAV<lambda_d80eeec6fff315bfe5c115232f3240e3>@@AEAV<lambda_6e4b09c48022b2350581041d5f6b0c4c>@@$$QEAV<lambda_2358e3775559c9db80273638284d5e45>@@@Z 000000018000dac8 f   libucrt:exit.obj
 0001:0000cb00       ??R<lambda_6e4b09c48022b2350581041d5f6b0c4c>@@QEBA@XZ 000000018000db00 f   libucrt:exit.obj
 0001:0000cbc4       ?atexit_exception_filter@@YAHK@Z 000000018000dbc4 f   libucrt:exit.obj
 0001:0000cbd0       ?common_exit@@YAXHW4_crt_exit_cleanup_mode@@W4_crt_exit_return_mode@@@Z 000000018000dbd0 f   libucrt:exit.obj
 0001:0000cc8c       ?exit_or_terminate_process@@YAXI@Z 000000018000dc8c f   libucrt:exit.obj
 0001:0000ccd8       ?try_cor_exit_process@@YAXI@Z 000000018000dcd8 f   libucrt:exit.obj
 0001:0000cd60       ??$parse_command_line@D@@YAXPEADPEAPEAD0PEA_K2@Z 000000018000dd60 f   libucrt:argv_parsing.obj
 0001:0000d10c       ??$common_initialize_environment_nolock@D@@YAHXZ 000000018000e10c f   libucrt:environment_initialization.obj
 0001:0000d178       ??$create_environment@D@@YAQEAPEADQEAD@Z 000000018000e178 f   libucrt:environment_initialization.obj
 0001:0000d280       ??$free_environment@_W@@YAXQEAPEA_W@Z 000000018000e280 f   libucrt:environment_initialization.obj
 0001:0000d280       ??$free_environment@D@@YAXQEAPEAD@Z 000000018000e280 f   libucrt:environment_initialization.obj
 0001:0000d2c4       ??$uninitialize_environment_internal@D@@YAXAEAPEAPEAD@Z 000000018000e2c4 f   libucrt:environment_initialization.obj
 0001:0000d2e0       ??$uninitialize_environment_internal@_W@@YAXAEAPEAPEA_W@Z 000000018000e2e0 f   libucrt:environment_initialization.obj
 0001:0000d33c       ??$?RV<lambda_638799b9deba96c50f710eeac98168cd>@@AEAV<lambda_22ebabd17bc4fa466a2aca6d8deb888d>@@V<lambda_a6f7d7db0129f75315ebf26d50c089f1>@@@?$__crt_seh_guarded_call@H@@QEAAH$$QEAV<lambda_638799b9deba96c50f710eeac98168cd>@@AEAV<lambda_22ebabd17bc4fa466a2aca6d8deb888d>@@$$QEAV<lambda_a6f7d7db0129f75315ebf26d50c089f1>@@@Z 000000018000e33c f   libucrt:onexit.obj
 0001:0000d378       ??$?RV<lambda_7777bce6b2f8c936911f934f8298dc43>@@AEAV<lambda_f03950bc5685219e0bcd2087efbe011e>@@V<lambda_3883c3dff614d5e0c5f61bb1ac94921c>@@@?$__crt_seh_guarded_call@H@@QEAAH$$QEAV<lambda_7777bce6b2f8c936911f934f8298dc43>@@AEAV<lambda_f03950bc5685219e0bcd2087efbe011e>@@$$QEAV<lambda_3883c3dff614d5e0c5f61bb1ac94921c>@@@Z 000000018000e378 f   libucrt:onexit.obj
 0001:0000d3b4       ??R<lambda_22ebabd17bc4fa466a2aca6d8deb888d>@@QEBAHXZ 000000018000e3b4 f   libucrt:onexit.obj
 0001:0000d564       ??R<lambda_f03950bc5685219e0bcd2087efbe011e>@@QEBAHXZ 000000018000e564 f   libucrt:onexit.obj
 0001:0000d738       initialize_global_variables 000000018000e738 f   libucrt:initialization.obj
 0001:0000d74c       initialize_c               000000018000e74c f   libucrt:initialization.obj
 0001:0000d770       uninitialize_c             000000018000e770 f   libucrt:initialization.obj
 0001:0000d770       uninitialize_global_state_isolation 000000018000e770 f   libucrt:initialization.obj
 0001:0000d770       initialize_global_state_isolation 000000018000e770 f   libucrt:initialization.obj
 0001:0000d770       report_memory_leaks        000000018000e770 f   libucrt:initialization.obj
 0001:0000d770       initialize_environment     000000018000e770 f   libucrt:initialization.obj
 0001:0000d774       uninitialize_environment   000000018000e774 f   libucrt:initialization.obj
 0001:0000d784       initialize_pointers        000000018000e784 f   libucrt:initialization.obj
 0001:0000d7c4       uninitialize_vcruntime     000000018000e7c4 f   libucrt:initialization.obj
 0001:0000d7cc       uninitialize_allocated_memory 000000018000e7cc f   libucrt:initialization.obj
 0001:0000d80c       uninitialize_allocated_io_buffers 000000018000e80c f   libucrt:initialization.obj
 0001:0000e480       $$000000                   000000018000f480     libucrt:strncmp.obj
 0001:0000e724       ??$common_xtox@K_W@@YAHKQEA_W_KI_N@Z 000000018000f724 f   libucrt:xtoa.obj
 0001:0000e7f8       ??$common_xtox_s@K_W@@YAHKQEA_W_KI_N@Z 000000018000f7f8 f   libucrt:xtoa.obj
 0001:0000ef2c       ??$?RV<lambda_842d9ff0dc9ef11c61343bbaebe7f885>@@AEAV<lambda_c5860995281e5c4ce005b3de8f5874ee>@@V<lambda_d90129c13df834fdcbf8d2b88dafcf2d>@@@?$__crt_seh_guarded_call@X@@QEAAX$$QEAV<lambda_842d9ff0dc9ef11c61343bbaebe7f885>@@AEAV<lambda_c5860995281e5c4ce005b3de8f5874ee>@@$$QEAV<lambda_d90129c13df834fdcbf8d2b88dafcf2d>@@@Z 000000018000ff2c f   libucrt:fflush.obj
 0001:0000efc8       ??$?RV<lambda_886d6c58226a84441f68b9f2b8217b83>@@AEAV<lambda_ab61a845afdef5b7c387490eaf3616ee>@@V<lambda_f7f22ab5edc0698d5f6905b0d3f44752>@@@?$__crt_seh_guarded_call@X@@QEAAX$$QEAV<lambda_886d6c58226a84441f68b9f2b8217b83>@@AEAV<lambda_ab61a845afdef5b7c387490eaf3616ee>@@$$QEAV<lambda_f7f22ab5edc0698d5f6905b0d3f44752>@@@Z 000000018000ffc8 f   libucrt:fflush.obj
 0001:0000f0a8       ??$?RV<lambda_c376a267cfb53b6959b3b692ec76b120>@@AEAV<lambda_9a32fed5bf61b6b509b2d3f6003082a1>@@V<lambda_572fbb9fa0ab338edf41edfd4b5fcc8d>@@@?$__crt_seh_guarded_call@H@@QEAAH$$QEAV<lambda_c376a267cfb53b6959b3b692ec76b120>@@AEAV<lambda_9a32fed5bf61b6b509b2d3f6003082a1>@@$$QEAV<lambda_572fbb9fa0ab338edf41edfd4b5fcc8d>@@@Z 00000001800100a8 f   libucrt:fflush.obj
 0001:0000f0e8       ?common_flush_all@@YAH_N@Z 00000001800100e8 f   libucrt:fflush.obj
 0001:0000f280       ??$?RV<lambda_84ec643ea9557e2f7dc01bb0e9624395>@@AEAV<lambda_ca71763b3c0644891230e4f79ea54fa6>@@V<lambda_439a761618c59b0600e24586724d733b>@@@?$__crt_seh_guarded_call@H@@QEAAH$$QEAV<lambda_84ec643ea9557e2f7dc01bb0e9624395>@@AEAV<lambda_ca71763b3c0644891230e4f79ea54fa6>@@$$QEAV<lambda_439a761618c59b0600e24586724d733b>@@@Z 0000000180010280 f   libucrt:setvbuf.obj
 0001:0000f2c0       ??R<lambda_ca71763b3c0644891230e4f79ea54fa6>@@QEBAHXZ 00000001800102c0 f   libucrt:setvbuf.obj
 0001:0000f43c       ??$?RV<lambda_450d765d439847d4c735a33c368b5fc0>@@AEAV<lambda_44731a7d0e6d81c3e6aa82d741081786>@@V<lambda_601a2a7da3b7a96e9554ac7215c4b07c>@@@?$__crt_seh_guarded_call@P6AXH@Z@@QEAAP6AXH@Z$$QEAV<lambda_450d765d439847d4c735a33c368b5fc0>@@AEAV<lambda_44731a7d0e6d81c3e6aa82d741081786>@@$$QEAV<lambda_601a2a7da3b7a96e9554ac7215c4b07c>@@@Z 000000018001043c f   libucrt:signal.obj
 0001:0000f740       ??$?RV<lambda_0ae27a3a962d80f24befdcbee591983d>@@AEAV<lambda_8d0ee55de4b1038c4002e0adecdf1839>@@V<lambda_dc504788e8f1664fe9b84e20bfb512f2>@@@?$__crt_seh_guarded_call@X@@QEAAX$$QEAV<lambda_0ae27a3a962d80f24befdcbee591983d>@@AEAV<lambda_8d0ee55de4b1038c4002e0adecdf1839>@@$$QEAV<lambda_dc504788e8f1664fe9b84e20bfb512f2>@@@Z 0000000180010740 f   libucrt:per_thread_data.obj
 0001:0000f780       ??$?RV<lambda_2d41944a1d46af3157314b8a01080d33>@@AEAV<lambda_8f455de75cd7d7f24b4096f044d8b9e6>@@V<lambda_aa500f224e6afead328df44964fe2772>@@@?$__crt_seh_guarded_call@X@@QEAAX$$QEAV<lambda_2d41944a1d46af3157314b8a01080d33>@@AEAV<lambda_8f455de75cd7d7f24b4096f044d8b9e6>@@$$QEAV<lambda_aa500f224e6afead328df44964fe2772>@@@Z 0000000180010780 f   libucrt:per_thread_data.obj
 0001:0000f7c0       ??$?RV<lambda_aa87e3671a710a21b5dc78c0bdf72e11>@@AEAV<lambda_92619d2358a28f41a33ba319515a20b9>@@V<lambda_6992ecaafeb10aed2b74cb1fae11a551>@@@?$__crt_seh_guarded_call@X@@QEAAX$$QEAV<lambda_aa87e3671a710a21b5dc78c0bdf72e11>@@AEAV<lambda_92619d2358a28f41a33ba319515a20b9>@@$$QEAV<lambda_6992ecaafeb10aed2b74cb1fae11a551>@@@Z 00000001800107c0 f   libucrt:per_thread_data.obj
 0001:0000f808       ??$?RV<lambda_f2e299630e499de9f9a165e60fcd3db5>@@AEAV<lambda_2ae9d31cdba2644fcbeaf08da7c24588>@@V<lambda_40d01ff24d0e7b3814fdbdcee8eab3c7>@@@?$__crt_seh_guarded_call@X@@QEAAX$$QEAV<lambda_f2e299630e499de9f9a165e60fcd3db5>@@AEAV<lambda_2ae9d31cdba2644fcbeaf08da7c24588>@@$$QEAV<lambda_40d01ff24d0e7b3814fdbdcee8eab3c7>@@@Z 0000000180010808 f   libucrt:per_thread_data.obj
 0001:0000f868       ?construct_ptd_array@@YAXQEAU__acrt_ptd@@@Z 0000000180010868 f   libucrt:per_thread_data.obj
 0001:0000f938       ?destroy_fls@@YAXPEAX@Z    0000000180010938 f   libucrt:per_thread_data.obj
 0001:0000f958       ?destroy_ptd_array@@YAXQEAU__acrt_ptd@@@Z 0000000180010958 f   libucrt:per_thread_data.obj
 0001:0000fa50       ?replace_current_thread_locale_nolock@@YAXQEAU__acrt_ptd@@QEAU__crt_locale_data@@@Z 0000000180010a50 f   libucrt:per_thread_data.obj
 0001:0000fda4       ?internal_isupper_l@@YA_NHQEAU__crt_locale_pointers@@@Z 0000000180010da4 f   libucrt:tolower_toupper.obj
 0001:0000ffd8       ??$?RV<lambda_410d79af7f07d98d83a3f525b3859a53>@@AEAV<lambda_3e16ef9562a7dcce91392c22ab16ea36>@@V<lambda_38119f0e861e05405d8a144b9b982f0a>@@@?$__crt_seh_guarded_call@X@@QEAAX$$QEAV<lambda_410d79af7f07d98d83a3f525b3859a53>@@AEAV<lambda_3e16ef9562a7dcce91392c22ab16ea36>@@$$QEAV<lambda_38119f0e861e05405d8a144b9b982f0a>@@@Z 0000000180010fd8 f   libucrt:wsetlocale.obj
 0001:00010830       ?fp_format_a@@YAHQEBNPEAD_KQEAD2H_NIQEAU__crt_locale_pointers@@@Z 0000000180011830 f   libucrt:cvt.obj
 0001:00010ba0       ?fp_format_e@@YAHQEBNQEAD_K12H_NIQEAU__crt_locale_pointers@@@Z 0000000180011ba0 f   libucrt:cvt.obj
 0001:00010c7c       ?fp_format_e_internal@@YAHQEAD_KH_NIQEAU_strflt@@2QEAU__crt_locale_pointers@@@Z 0000000180011c7c f   libucrt:cvt.obj
 0001:00010e50       ?fp_format_f_internal@@YAHQEAD_KHQEAU_strflt@@_NQEAU__crt_locale_pointers@@@Z 0000000180011e50 f   libucrt:cvt.obj
 0001:00010f94       ?fp_format_g@@YAHQEBNQEAD_K12H_NIQEAU__crt_locale_pointers@@@Z 0000000180011f94 f   libucrt:cvt.obj
 0001:000110c8       ?fp_format_nan_or_infinity@@YAHW4__acrt_fp_class@@_NPEAD_K1@Z 00000001800120c8 f   libucrt:cvt.obj
 0001:0001176c       ?initialize_inherited_file_handles_nolock@@YAXXZ 000000018001276c f   libucrt:ioinit.obj
 0001:0001185c       ?initialize_stdio_handles_nolock@@YAXXZ 000000018001285c f   libucrt:ioinit.obj
 0001:000119e4       ?write_double_translated_ansi_nolock@@YA?AUwrite_result@?A0x17268360@@HQEBDI@Z 00000001800129e4 f   libucrt:write.obj
 0001:00011ec0       ?write_text_ansi_nolock@@YA?AUwrite_result@?A0x17268360@@HQEBDI@Z 0000000180012ec0 f   libucrt:write.obj
 0001:00011fc4       ?write_text_utf16le_nolock@@YA?AUwrite_result@?A0x17268360@@HQEBDI@Z 0000000180012fc4 f   libucrt:write.obj
 0001:000120e0       ?write_text_utf8_nolock@@YA?AUwrite_result@?A0x17268360@@HQEBDI@Z 00000001800130e0 f   libucrt:write.obj
 0001:00012618       ??$write_buffer_nolock@D@@YA_NDV__crt_stdio_stream@@@Z 0000000180013618 f   libucrt:_flsbuf.obj
 0001:000126fc       ??$write_buffer_nolock@_W@@YA_N_WV__crt_stdio_stream@@@Z 00000001800136fc f   libucrt:_flsbuf.obj
 0001:000127e4       ?stream_is_at_end_of_file_nolock@@YA_NV__crt_stdio_stream@@@Z 00000001800137e4 f   libucrt:_flsbuf.obj
 0001:00012be8       ?<lambda_invoker_cdecl>@<lambda_c2303d2482d7c3675ea2e24c4cfb6115>@@CAHPEBX0@Z 0000000180013be8 f   libucrt:argv_wildcards.obj
 0001:00012f00       ??$common_expand_argv_wildcards@D@@YAHQEAPEADQEAPEAPEAD@Z 0000000180013f00 f   libucrt:argv_wildcards.obj
 0001:0001310c       ??$copy_and_add_argument_to_buffer@D@@YAHQEBD0_KAEAV?$argument_list@D@?A0x5f5c8891@@@Z 000000018001410c f   libucrt:argv_wildcards.obj
 0001:00013294       ??$expand_argument_wildcards@D@@YAHQEAD0AEAV?$argument_list@D@?A0x5f5c8891@@@Z 0000000180014294 f   libucrt:argv_wildcards.obj
 0001:000135ac       ??$?RV<lambda_efdfa57d1f175319df784efa44bb7b81>@@AEAV<lambda_5f0a4c1567f8adc6734073e5d1e1b35c>@@V<lambda_2e8a7d3640ea6ccb4c2413664c2db6fd>@@@?$__crt_seh_guarded_call@X@@QEAAX$$QEAV<lambda_efdfa57d1f175319df784efa44bb7b81>@@AEAV<lambda_5f0a4c1567f8adc6734073e5d1e1b35c>@@$$QEAV<lambda_2e8a7d3640ea6ccb4c2413664c2db6fd>@@@Z 00000001800145ac f   libucrt:mbctype.obj
 0001:00013768       ?getSystemCP@@YAHH@Z       0000000180014768 f   libucrt:mbctype.obj
 0001:000137e8       ?setSBCS@@YAXPEAU__crt_multibyte_data@@@Z 00000001800147e8 f   libucrt:mbctype.obj
 0001:00013878       ?setSBUpLow@@YAXPEAU__crt_multibyte_data@@@Z 0000000180014878 f   libucrt:mbctype.obj
 0001:00013a5c       ?setmbcp_internal@@YAHH_NQEAU__acrt_ptd@@QEAPEAU__crt_multibyte_data@@@Z 0000000180014a5c f   libucrt:mbctype.obj
 0001:00013c20       ?update_thread_multibyte_data_internal@@YAPEAU__crt_multibyte_data@@QEAU__acrt_ptd@@QEAPEAU1@@Z 0000000180014c20 f   libucrt:mbctype.obj
 0001:00014010       ?x_ismbbtype_l@@YAHPEAU__crt_locale_pointers@@IHH@Z 0000000180015010 f   libucrt:ismbbyte.obj
 0001:00014354       ?try_get_function@@YAPEAXW4function_id@?A0x391cf84c@@QEBDQEBW4module_id@2@2@Z 0000000180015354 f   libucrt:winapi_thunks.obj
 0001:00014f98       ??$?RV<lambda_a37b2b86f63e897a80ea819b0eb08c01>@@AEAV<lambda_38ce7e780aa69e748d6df282ebc68efe>@@V<lambda_99fb1378e971ab6e7edea83e3a7a83a2>@@@?$__crt_seh_guarded_call@H@@QEAAH$$QEAV<lambda_a37b2b86f63e897a80ea819b0eb08c01>@@AEAV<lambda_38ce7e780aa69e748d6df282ebc68efe>@@$$QEAV<lambda_99fb1378e971ab6e7edea83e3a7a83a2>@@@Z 0000000180015f98 f   libucrt:commit.obj
 0001:00015510       ?__acrt_LCMapStringA_stat@@YAHPEAU__crt_locale_pointers@@PEB_WKPEBDHPEADHHH@Z 0000000180016510 f   libucrt:lcmapstringa.obj
 0001:00015a38       ?free_crt_array_internal@@YAXQEAPEBX_K@Z 0000000180016a38 f   libucrt:inittime.obj
 0001:000176e0       memcpy_s                   00000001800186e0 f   libucrt:cfout.obj
 0001:00017aec       ??$common_lseek@_J@@YA_JH_JH@Z 0000000180018aec f   libucrt:lseek.obj
 0001:00017bdc       ??$common_lseek_nolock@_J@@YA_JH_JH@Z 0000000180018bdc f   libucrt:lseek.obj
 0001:000181c4       fallbackMethod             00000001800191c4 f   libucrt:strpbrk.obj
 0001:00018594       $LN78                      0000000180019594     libucrt:strpbrk.obj
 0001:000185d0       $LN77                      00000001800195d0     libucrt:strpbrk.obj
 0001:00018610       $LN76                      0000000180019610     libucrt:strpbrk.obj
 0001:000186ec       ?initialize_multibyte@@YAHXZ 00000001800196ec f   libucrt:multibyte_initializer.obj
 0001:00018740       ?GetTableIndexFromLocaleName@@YAHPEB_W@Z 0000000180019740 f   libucrt:lcidtoname_downlevel.obj
 0001:00018cd0       $$000000                   0000000180019cd0     libucrt:log10.obj
 0001:000193ac       ??$?RV<lambda_751a882b2c74d4b022dec766aa51a29a>@@AEAV<lambda_628dfdc04ba53c8bfc02c9951375f3f5>@@V<lambda_f6c7be5f7998530c34de24c7437d6b54>@@@?$__crt_seh_guarded_call@H@@QEAAH$$QEAV<lambda_751a882b2c74d4b022dec766aa51a29a>@@AEAV<lambda_628dfdc04ba53c8bfc02c9951375f3f5>@@$$QEAV<lambda_f6c7be5f7998530c34de24c7437d6b54>@@@Z 000000018001a3ac f   libucrt:close.obj
 0001:00019924       _call_matherr              000000018001a924 f   libucrt:libm_error.obj
 0001:0001998c       _exception_enabled         000000018001a98c f   libucrt:libm_error.obj
 0001:00019c20       _log_special_common        000000018001ac20 f   libucrt:log_special.obj
 0001:00019cc0       $$000000                   000000018001acc0     libucrt:fpsr.obj
 0001:0001a910       $$000000                   000000018001b910     LIBCMT:chkstk.obj
 0001:0001a980       $$000000                   000000018001b980     libvcruntime:memcmp.obj
 0001:0001ace0       $$000000                   000000018001bce0     LIBCMT:guard_dispatch.obj
 0001:0001ad00       ?dtor$0@?0??ThrowError@Nan@@YAXPEBD@Z@4HA 000000018001bd00 f   msgpack.obj
 0001:0001ad10       ?dtor$0@?0??pack@@YAXAEBV?$FunctionCallbackInfo@VValue@v8@@@Nan@@@Z@4HA 000000018001bd10 f   msgpack.obj
 0001:0001ad1c       ?dtor$1@?0??pack@@YAXAEBV?$FunctionCallbackInfo@VValue@v8@@@Nan@@@Z@4HA 000000018001bd1c f   msgpack.obj
 0001:0001ad28       ?catch$20@?0??pack@@YAXAEBV?$FunctionCallbackInfo@VValue@v8@@@Nan@@@Z@4HA 000000018001bd28 f   msgpack.obj
 0001:0001ad36       __catch$?pack@@YAXAEBV?$FunctionCallbackInfo@VValue@v8@@@Nan@@@Z$0 000000018001bd36 f   msgpack.obj
 0001:0001ad7a       ?dtor$15@?0??pack@@YAXAEBV?$FunctionCallbackInfo@VValue@v8@@@Nan@@@Z@4HA 000000018001bd7a f   msgpack.obj
 0001:0001ad90       ?dtor$0@?0??unpack@@YAXAEBV?$FunctionCallbackInfo@VValue@v8@@@Nan@@@Z@4HA 000000018001bd90 f   msgpack.obj
 0001:0001ad9c       ?dtor$3@?0??unpack@@YAXAEBV?$FunctionCallbackInfo@VValue@v8@@@Nan@@@Z@4HA 000000018001bd9c f   msgpack.obj
 0001:0001ada8       ?dtor$1@?0??unpack@@YAXAEBV?$FunctionCallbackInfo@VValue@v8@@@Nan@@@Z@4HA 000000018001bda8 f   msgpack.obj
 0001:0001adb4       ?dtor$7@?0??unpack@@YAXAEBV?$FunctionCallbackInfo@VValue@v8@@@Nan@@@Z@4HA 000000018001bdb4 f   msgpack.obj
 0001:0001adc2       ?catch$14@?0??unpack@@YAXAEBV?$FunctionCallbackInfo@VValue@v8@@@Nan@@@Z@4HA 000000018001bdc2 f   msgpack.obj
 0001:0001add0       __catch$?unpack@@YAXAEBV?$FunctionCallbackInfo@VValue@v8@@@Nan@@@Z$0 000000018001bdd0 f   msgpack.obj
 0001:0001ae10       ?dtor$0@?0??init@@YAXV?$Local@VObject@v8@@@v8@@@Z@4HA 000000018001be10 f   msgpack.obj
 0001:0001ae1e       ?dtor$2@?0??init@@YAXV?$Local@VObject@v8@@@v8@@@Z@4HA 000000018001be1e f   msgpack.obj
 0001:0001ae2c       ?dtor$3@?0??init@@YAXV?$Local@VObject@v8@@@v8@@@Z@4HA 000000018001be2c f   msgpack.obj
 0001:0001ae3a       ?dtor$5@?0??init@@YAXV?$Local@VObject@v8@@@v8@@@Z@4HA 000000018001be3a f   msgpack.obj
 0001:0001ae50       ?dtor$0@?0???$New@VFunctionTemplate@v8@@@Nan@@YA?AV?$Local@VFunctionTemplate@v8@@@v8@@P6AXAEBV?$FunctionCallbackInfo@VValue@v8@@@0@@ZV?$Local@VValue@v8@@@2@@Z@4HA 000000018001be50 f   msgpack.obj
 0001:0001ae5e       ?dtor$1@?0???$New@VFunctionTemplate@v8@@@Nan@@YA?AV?$Local@VFunctionTemplate@v8@@@v8@@P6AXAEBV?$FunctionCallbackInfo@VValue@v8@@@0@@ZV?$Local@VValue@v8@@@2@@Z@4HA 000000018001be5e f   msgpack.obj
 0001:0001ae6c       __scrt_is_nonwritable_in_current_image$filt$0 000000018001be6c f   LIBCMT:utility.obj
 0001:0001ae84       ?fin$0@?0??dllmain_crt_process_attach@@YAHQEAUHINSTANCE__@@QEAX@Z@4HA 000000018001be84 f   LIBCMT:dll_dllmain.obj
 0001:0001ae9b       ?fin$0@?0??dllmain_crt_process_detach@@YAH_N@Z@4HA 000000018001be9b f   LIBCMT:dll_dllmain.obj
 0001:0001aeb7       ?filt$0@?0??dllmain_dispatch@@YAHQEAUHINSTANCE__@@KQEAX@Z@4HA 000000018001beb7 f   LIBCMT:dll_dllmain.obj
 0001:0001aeed       ?filt$0@?0???$_CallSETranslator@V__FrameHandler3@@@@YAHPEAUEHExceptionRecord@@PEA_KPEAU_CONTEXT@@PEAU_xDISPATCHER_CONTEXT@@PEBU_s_FuncInfo@@K1@Z@4HA 000000018001beed f   libvcruntime:risctrnsctrl.obj
 0001:0001af7e       __DestructExceptionObject$filt$0 000000018001bf7e f   libvcruntime:ehhelpers.obj
 0001:0001af96       ?filt$0@?0??CxxCallCatchBlock@__FrameHandler3@@SAPEAXPEAU_EXCEPTION_RECORD@@@Z@4HA 000000018001bf96 f   libvcruntime:frame.obj
 0001:0001afbb       ?fin$1@?0??CxxCallCatchBlock@__FrameHandler3@@SAPEAXPEAU_EXCEPTION_RECORD@@@Z@4HA 000000018001bfbb f   libvcruntime:frame.obj
 0001:0001b033       ?filt$0@?0??FrameUnwindToState@__FrameHandler3@@SAXPEA_KPEAU_xDISPATCHER_CONTEXT@@PEBU_s_FuncInfo@@H@Z@4HA 000000018001c033 f   libvcruntime:frame.obj
 0001:0001b049       ?fin$1@?0??FrameUnwindToState@__FrameHandler3@@SAXPEA_KPEAU_xDISPATCHER_CONTEXT@@PEBU_s_FuncInfo@@H@Z@4HA 000000018001c049 f   libvcruntime:frame.obj
 0001:0001b06c       ?fin$0@?0???$?RV<lambda_bdbcead8b570fa3d5ec6d9679862a6e5>@@AEAV<lambda_96f4279ff90247a4c5c5d9824f56f8c1>@@V<lambda_4606be27f17b5e5579e09050fab91818>@@@?$__crt_seh_guarded_call@_K@@QEAA_K$$QEAV<lambda_bdbcead8b570fa3d5ec6d9679862a6e5>@@AEAV<lambda_96f4279ff90247a4c5c5d9824f56f8c1>@@$$QEAV<lambda_4606be27f17b5e5579e09050fab91818>@@@Z@4HA 000000018001c06c f   libucrt:fwrite.obj
 0001:0001b06c       ?fin$0@?0???$?RV<lambda_0d412022a4b28cc8a401ea49574e8ae6>@@AEAV<lambda_a775ed57af18ba8e4d5dc780aa9068fe>@@V<lambda_975a71a6baa488a08f4e15f6b0339b9e>@@@?$__crt_seh_guarded_call@H@@QEAAH$$QEAV<lambda_0d412022a4b28cc8a401ea49574e8ae6>@@AEAV<lambda_a775ed57af18ba8e4d5dc780aa9068fe>@@$$QEAV<lambda_975a71a6baa488a08f4e15f6b0339b9e>@@@Z@4HA 000000018001c06c f   libucrt:output.obj
 0001:0001b06c       ?fin$0@?0???$?RV<lambda_c376a267cfb53b6959b3b692ec76b120>@@AEAV<lambda_9a32fed5bf61b6b509b2d3f6003082a1>@@V<lambda_572fbb9fa0ab338edf41edfd4b5fcc8d>@@@?$__crt_seh_guarded_call@H@@QEAAH$$QEAV<lambda_c376a267cfb53b6959b3b692ec76b120>@@AEAV<lambda_9a32fed5bf61b6b509b2d3f6003082a1>@@$$QEAV<lambda_572fbb9fa0ab338edf41edfd4b5fcc8d>@@@Z@4HA 000000018001c06c f   libucrt:fflush.obj
 0001:0001b06c       ?fin$0@?0???$?RV<lambda_842d9ff0dc9ef11c61343bbaebe7f885>@@AEAV<lambda_c5860995281e5c4ce005b3de8f5874ee>@@V<lambda_d90129c13df834fdcbf8d2b88dafcf2d>@@@?$__crt_seh_guarded_call@X@@QEAAX$$QEAV<lambda_842d9ff0dc9ef11c61343bbaebe7f885>@@AEAV<lambda_c5860995281e5c4ce005b3de8f5874ee>@@$$QEAV<lambda_d90129c13df834fdcbf8d2b88dafcf2d>@@@Z@4HA 000000018001c06c f   libucrt:fflush.obj
 0001:0001b06c       ?fin$0@?0???$?RV<lambda_84ec643ea9557e2f7dc01bb0e9624395>@@AEAV<lambda_ca71763b3c0644891230e4f79ea54fa6>@@V<lambda_439a761618c59b0600e24586724d733b>@@@?$__crt_seh_guarded_call@H@@QEAAH$$QEAV<lambda_84ec643ea9557e2f7dc01bb0e9624395>@@AEAV<lambda_ca71763b3c0644891230e4f79ea54fa6>@@$$QEAV<lambda_439a761618c59b0600e24586724d733b>@@@Z@4HA 000000018001c06c f   libucrt:setvbuf.obj
 0001:0001b06c       ?fin$0@?0???$?RV<lambda_a62c933ada0517137acf5807a1eeac1f>@@AEAV<lambda_a31071773b9a94e445cbd5d04ef99106>@@V<lambda_56065050dbf3ada7e59a83db45153de3>@@@?$__crt_seh_guarded_call@H@@QEAAH$$QEAV<lambda_a62c933ada0517137acf5807a1eeac1f>@@AEAV<lambda_a31071773b9a94e445cbd5d04ef99106>@@$$QEAV<lambda_56065050dbf3ada7e59a83db45153de3>@@@Z@4HA 000000018001c06c f   libucrt:output.obj
 0001:0001b087       _query_new_handler$fin$0   000000018001c087 f   libucrt:new_handler.obj
 0001:0001b09d       ?fin$0@?0???$?RV<lambda_638799b9deba96c50f710eeac98168cd>@@AEAV<lambda_22ebabd17bc4fa466a2aca6d8deb888d>@@V<lambda_a6f7d7db0129f75315ebf26d50c089f1>@@@?$__crt_seh_guarded_call@H@@QEAAH$$QEAV<lambda_638799b9deba96c50f710eeac98168cd>@@AEAV<lambda_22ebabd17bc4fa466a2aca6d8deb888d>@@$$QEAV<lambda_a6f7d7db0129f75315ebf26d50c089f1>@@@Z@4HA 000000018001c09d f   libucrt:onexit.obj
 0001:0001b09d       ?fin$0@?0???$?RV<lambda_efdfa57d1f175319df784efa44bb7b81>@@AEAV<lambda_5f0a4c1567f8adc6734073e5d1e1b35c>@@V<lambda_2e8a7d3640ea6ccb4c2413664c2db6fd>@@@?$__crt_seh_guarded_call@X@@QEAAX$$QEAV<lambda_efdfa57d1f175319df784efa44bb7b81>@@AEAV<lambda_5f0a4c1567f8adc6734073e5d1e1b35c>@@$$QEAV<lambda_2e8a7d3640ea6ccb4c2413664c2db6fd>@@@Z@4HA 000000018001c09d f   libucrt:mbctype.obj
 0001:0001b09d       ?fin$0@?0???$?RV<lambda_0ae27a3a962d80f24befdcbee591983d>@@AEAV<lambda_8d0ee55de4b1038c4002e0adecdf1839>@@V<lambda_dc504788e8f1664fe9b84e20bfb512f2>@@@?$__crt_seh_guarded_call@X@@QEAAX$$QEAV<lambda_0ae27a3a962d80f24befdcbee591983d>@@AEAV<lambda_8d0ee55de4b1038c4002e0adecdf1839>@@$$QEAV<lambda_dc504788e8f1664fe9b84e20bfb512f2>@@@Z@4HA 000000018001c09d f   libucrt:per_thread_data.obj
 0001:0001b09d       ?fin$0@?0???$?RV<lambda_2d41944a1d46af3157314b8a01080d33>@@AEAV<lambda_8f455de75cd7d7f24b4096f044d8b9e6>@@V<lambda_aa500f224e6afead328df44964fe2772>@@@?$__crt_seh_guarded_call@X@@QEAAX$$QEAV<lambda_2d41944a1d46af3157314b8a01080d33>@@AEAV<lambda_8f455de75cd7d7f24b4096f044d8b9e6>@@$$QEAV<lambda_aa500f224e6afead328df44964fe2772>@@@Z@4HA 000000018001c09d f   libucrt:per_thread_data.obj
 0001:0001b09d       ?fin$0@?0???$?RV<lambda_450d765d439847d4c735a33c368b5fc0>@@AEAV<lambda_44731a7d0e6d81c3e6aa82d741081786>@@V<lambda_601a2a7da3b7a96e9554ac7215c4b07c>@@@?$__crt_seh_guarded_call@P6AXH@Z@@QEAAP6AXH@Z$$QEAV<lambda_450d765d439847d4c735a33c368b5fc0>@@AEAV<lambda_44731a7d0e6d81c3e6aa82d741081786>@@$$QEAV<lambda_601a2a7da3b7a96e9554ac7215c4b07c>@@@Z@4HA 000000018001c09d f   libucrt:signal.obj
 0001:0001b09d       ?fin$0@?0???$?RV<lambda_d80eeec6fff315bfe5c115232f3240e3>@@AEAV<lambda_6e4b09c48022b2350581041d5f6b0c4c>@@V<lambda_2358e3775559c9db80273638284d5e45>@@@?$__crt_seh_guarded_call@X@@QEAAX$$QEAV<lambda_d80eeec6fff315bfe5c115232f3240e3>@@AEAV<lambda_6e4b09c48022b2350581041d5f6b0c4c>@@$$QEAV<lambda_2358e3775559c9db80273638284d5e45>@@@Z@4HA 000000018001c09d f   libucrt:exit.obj
 0001:0001b09d       ?fin$0@?0???$?RV<lambda_aa87e3671a710a21b5dc78c0bdf72e11>@@AEAV<lambda_92619d2358a28f41a33ba319515a20b9>@@V<lambda_6992ecaafeb10aed2b74cb1fae11a551>@@@?$__crt_seh_guarded_call@X@@QEAAX$$QEAV<lambda_aa87e3671a710a21b5dc78c0bdf72e11>@@AEAV<lambda_92619d2358a28f41a33ba319515a20b9>@@$$QEAV<lambda_6992ecaafeb10aed2b74cb1fae11a551>@@@Z@4HA 000000018001c09d f   libucrt:per_thread_data.obj
 0001:0001b09d       ?fin$0@?0???$?RV<lambda_7777bce6b2f8c936911f934f8298dc43>@@AEAV<lambda_f03950bc5685219e0bcd2087efbe011e>@@V<lambda_3883c3dff614d5e0c5f61bb1ac94921c>@@@?$__crt_seh_guarded_call@H@@QEAAH$$QEAV<lambda_7777bce6b2f8c936911f934f8298dc43>@@AEAV<lambda_f03950bc5685219e0bcd2087efbe011e>@@$$QEAV<lambda_3883c3dff614d5e0c5f61bb1ac94921c>@@@Z@4HA 000000018001c09d f   libucrt:onexit.obj
 0001:0001b09d       ?fin$0@?0???$?RV<lambda_f2e299630e499de9f9a165e60fcd3db5>@@AEAV<lambda_2ae9d31cdba2644fcbeaf08da7c24588>@@V<lambda_40d01ff24d0e7b3814fdbdcee8eab3c7>@@@?$__crt_seh_guarded_call@X@@QEAAX$$QEAV<lambda_f2e299630e499de9f9a165e60fcd3db5>@@AEAV<lambda_2ae9d31cdba2644fcbeaf08da7c24588>@@$$QEAV<lambda_40d01ff24d0e7b3814fdbdcee8eab3c7>@@@Z@4HA 000000018001c09d f   libucrt:per_thread_data.obj
 0001:0001b0b7       ?filt$0@?0???R<lambda_6e4b09c48022b2350581041d5f6b0c4c>@@QEBA@XZ@4HA 000000018001c0b7 f   libucrt:exit.obj
 0001:0001b0d2       ?fin$0@?0???$?RV<lambda_886d6c58226a84441f68b9f2b8217b83>@@AEAV<lambda_ab61a845afdef5b7c387490eaf3616ee>@@V<lambda_f7f22ab5edc0698d5f6905b0d3f44752>@@@?$__crt_seh_guarded_call@X@@QEAAX$$QEAV<lambda_886d6c58226a84441f68b9f2b8217b83>@@AEAV<lambda_ab61a845afdef5b7c387490eaf3616ee>@@$$QEAV<lambda_f7f22ab5edc0698d5f6905b0d3f44752>@@@Z@4HA 000000018001c0d2 f   libucrt:fflush.obj
 0001:0001b0ef       raise$fin$0                000000018001c0ef f   libucrt:signal.obj
 0001:0001b110       ?fin$0@?0???$?RV<lambda_410d79af7f07d98d83a3f525b3859a53>@@AEAV<lambda_3e16ef9562a7dcce91392c22ab16ea36>@@V<lambda_38119f0e861e05405d8a144b9b982f0a>@@@?$__crt_seh_guarded_call@X@@QEAAX$$QEAV<lambda_410d79af7f07d98d83a3f525b3859a53>@@AEAV<lambda_3e16ef9562a7dcce91392c22ab16ea36>@@$$QEAV<lambda_38119f0e861e05405d8a144b9b982f0a>@@@Z@4HA 000000018001c110 f   libucrt:wsetlocale.obj
 0001:0001b12a       __acrt_initialize_lowio$fin$0 000000018001c12a f   libucrt:ioinit.obj
 0001:0001b12a       __acrt_lowio_ensure_fh_exists$fin$0 000000018001c12a f   libucrt:osfinfo.obj
 0001:0001b143       ?fin$0@?0???$common_lseek@_J@@YA_JH_JH@Z@4HA 000000018001c143 f   libucrt:lseek.obj
 0001:0001b143       _write$fin$0               000000018001c143 f   libucrt:write.obj
 0001:0001b15a       ?fin$0@?0??update_thread_multibyte_data_internal@@YAPEAU__crt_multibyte_data@@QEAU__acrt_ptd@@QEAPEAU1@@Z@4HA 000000018001c15a f   libucrt:mbctype.obj
 0001:0001b173       _fcloseall$fin$0           000000018001c173 f   libucrt:closeall.obj
 0001:0001b18c       ?fin$0@?0???$?RV<lambda_a37b2b86f63e897a80ea819b0eb08c01>@@AEAV<lambda_38ce7e780aa69e748d6df282ebc68efe>@@V<lambda_99fb1378e971ab6e7edea83e3a7a83a2>@@@?$__crt_seh_guarded_call@H@@QEAAH$$QEAV<lambda_a37b2b86f63e897a80ea819b0eb08c01>@@AEAV<lambda_38ce7e780aa69e748d6df282ebc68efe>@@$$QEAV<lambda_99fb1378e971ab6e7edea83e3a7a83a2>@@@Z@4HA 000000018001c18c f   libucrt:commit.obj
 0001:0001b18c       ?fin$0@?0???$?RV<lambda_751a882b2c74d4b022dec766aa51a29a>@@AEAV<lambda_628dfdc04ba53c8bfc02c9951375f3f5>@@V<lambda_f6c7be5f7998530c34de24c7437d6b54>@@@?$__crt_seh_guarded_call@H@@QEAAH$$QEAV<lambda_751a882b2c74d4b022dec766aa51a29a>@@AEAV<lambda_628dfdc04ba53c8bfc02c9951375f3f5>@@$$QEAV<lambda_f6c7be5f7998530c34de24c7437d6b54>@@@Z@4HA 000000018001c18c f   libucrt:close.obj
 0001:0001b1a6       __acrt_update_thread_locale_data$fin$0 000000018001c1a6 f   libucrt:locale_refcounting.obj
 0001:0001b1bf       fclose$fin$0               000000018001c1bf f   libucrt:fclose.obj
 0001:0001b1d7       _ctrlfp$filt$0             000000018001c1d7 f   libucrt:fpctrl.obj
 0001:0001b210       _IsNonwritableInCurrentImage$filt$0 000000018001c210 f   LIBCMT:pesect.obj
 0001:0001b230       ??__Fmsgpack_unpack_template@@YAXXZ 000000018001c230 f   msgpack.obj
 0001:0001b250       ??__Fsbuffers@@YAXXZ       000000018001c250 f   msgpack.obj
 0002:00000278       ?sbuffers$initializer$@@3P6AXXZEA 000000018001d278     msgpack.obj
 0002:00000280       ?msgpack_unpack_template$initializer$@@3P6AXXZEA 000000018001d280     msgpack.obj
 0002:000003b0       GS_ExceptionPointers       000000018001d3b0     LIBCMT:gs_report.obj
 0002:000003f0       ?ExceptionTemplate@?1??UnwindNestedFrames@__FrameHandler3@@SAXPEA_KPEAUEHExceptionRecord@@PEAU_CONTEXT@@0PEAXPEBU_s_FuncInfo@@HHPEBU_s_HandlerType@@PEAU_xDISPATCHER_CONTEXT@@E@Z@4U_EXCEPTION_RECORD@@B 000000018001d3f0     libvcruntime:risctrnsctrl.obj
 0002:00000490       ?ExceptionTemplate@?1??_CxxThrowException@@9@4UEHExceptionRecord@@B 000000018001d490     libvcruntime:throw.obj
 0002:000004f8       ?module_names@?A0xbfd18cd1@@3QBQEB_WB 000000018001d4f8     libvcruntime:winapi_downlevel.obj
 0002:000005c8       ?candidate_modules@?1??try_get_FlsAlloc@@YAP6AKP6AXPEAX@Z@ZXZ@4QBW4module_id@?A0xbfd18cd1@@B 000000018001d5c8     libvcruntime:winapi_downlevel.obj
 0002:000005e0       ?candidate_modules@?1??try_get_FlsFree@@YAP6AHK@ZXZ@4QBW4module_id@?A0xbfd18cd1@@B 000000018001d5e0     libvcruntime:winapi_downlevel.obj
 0002:000005f0       ?candidate_modules@?1??try_get_FlsGetValue@@YAP6APEAXK@ZXZ@4QBW4module_id@?A0xbfd18cd1@@B 000000018001d5f0     libvcruntime:winapi_downlevel.obj
 0002:00000608       ?candidate_modules@?1??try_get_FlsSetValue@@YAP6AHKPEAX@ZXZ@4QBW4module_id@?A0xbfd18cd1@@B 000000018001d608     libvcruntime:winapi_downlevel.obj
 0002:00000620       ?candidate_modules@?1??try_get_InitializeCriticalSectionEx@@YAP6AHPEAU_RTL_CRITICAL_SECTION@@KK@ZXZ@4QBW4module_id@?A0xbfd18cd1@@B 000000018001d620     libvcruntime:winapi_downlevel.obj
 0002:00000650       ?tokenTable@@3QBQEBDB      000000018001d650     libvcruntime:undname.obj
 0002:000006d0       ?nameTable@@3QBQEBDB       000000018001d6d0     libvcruntime:undname.obj
 0002:00000960       ?rttiTable@@3QBQEBDB       000000018001d960     libvcruntime:undname.obj
 0002:00001480       __acrt_initializers        000000018001e480     libucrt:initialization.obj
 0002:00001580       ?errtable@@3QBUerrentry@?A0x31fdb9ec@@B 000000018001e580     libucrt:errno.obj
 0002:00001dc8       ?_mb_locale_names@@3QBQEB_WB 000000018001edc8     libucrt:mbctype.obj
 0002:00001e30       ?module_names@?A0x391cf84c@@3QBQEB_WB 000000018001ee30     libucrt:winapi_thunks.obj
 0002:000023d8       ?candidate_modules@?1??try_get_AreFileApisANSI@@YAP6AHXZXZ@4QBW4module_id@?A0x391cf84c@@B 000000018001f3d8     libucrt:winapi_thunks.obj
 0002:000023f0       ?candidate_modules@?1??try_get_FlsAlloc@@YAP6AKP6AXPEAX@Z@ZXZ@4QBW4module_id@?A0x391cf84c@@B 000000018001f3f0     libucrt:winapi_thunks.obj
 0002:00002408       ?candidate_modules@?1??try_get_FlsFree@@YAP6AHK@ZXZ@4QBW4module_id@?A0x391cf84c@@B 000000018001f408     libucrt:winapi_thunks.obj
 0002:00002418       ?candidate_modules@?1??try_get_FlsGetValue@@YAP6APEAXK@ZXZ@4QBW4module_id@?A0x391cf84c@@B 000000018001f418     libucrt:winapi_thunks.obj
 0002:00002430       ?candidate_modules@?1??try_get_FlsSetValue@@YAP6AHKPEAX@ZXZ@4QBW4module_id@?A0x391cf84c@@B 000000018001f430     libucrt:winapi_thunks.obj
 0002:00002448       ?candidate_modules@?1??try_get_GetActiveWindow@@YAP6APEAUHWND__@@XZXZ@4QBW4module_id@?A0x391cf84c@@B 000000018001f448     libucrt:winapi_thunks.obj
 0002:00002460       ?candidate_modules@?1??try_get_GetLastActivePopup@@YAP6APEAUHWND__@@PEAU2@@ZXZ@4QBW4module_id@?A0x391cf84c@@B 000000018001f460     libucrt:winapi_thunks.obj
 0002:00002480       ?candidate_modules@?1??try_get_GetProcessWindowStation@@YAP6APEAUHWINSTA__@@XZXZ@4QBW4module_id@?A0x391cf84c@@B 000000018001f480     libucrt:winapi_thunks.obj
 0002:000024a0       ?candidate_modules@?1??try_get_GetUserObjectInformationW@@YAP6AHPEAXH0KPEAK@ZXZ@4QBW4module_id@?A0x391cf84c@@B 000000018001f4a0     libucrt:winapi_thunks.obj
 0002:000024c8       ?candidate_modules@?1??try_get_InitializeCriticalSectionEx@@YAP6AHPEAU_RTL_CRITICAL_SECTION@@KK@ZXZ@4QBW4module_id@?A0x391cf84c@@B 000000018001f4c8     libucrt:winapi_thunks.obj
 0002:000024f0       ?candidate_modules@?1??try_get_LCMapStringEx@@YAP6AHPEB_WK0HPEA_WHPEAU_nlsversioninfo@@PEAX_J@ZXZ@4QBW4module_id@?A0x391cf84c@@B 000000018001f4f0     libucrt:winapi_thunks.obj
 0002:00002508       ?candidate_modules@?1??try_get_LocaleNameToLCID@@YAP6AKPEB_WK@ZXZ@4QBW4module_id@?A0x391cf84c@@B 000000018001f508     libucrt:winapi_thunks.obj
 0002:00002528       ?candidate_modules@?1??try_get_MessageBoxA@@YAP6AHPEAUHWND__@@PEBD1I@ZXZ@4QBW4module_id@?A0x391cf84c@@B 000000018001f528     libucrt:winapi_thunks.obj
 0002:00002540       ?candidate_modules@?1??try_get_MessageBoxW@@YAP6AHPEAUHWND__@@PEB_W1I@ZXZ@4QBW4module_id@?A0x391cf84c@@B 000000018001f540     libucrt:winapi_thunks.obj
 0002:00002554       ?candidate_modules@?1??try_get_AppPolicyGetProcessTerminationMethod@@YAP6AJPEAXPEAW4AppPolicyProcessTerminationMethod@@@ZXZ@4QBW4module_id@?A0x391cf84c@@B 000000018001f554     libucrt:winapi_thunks.obj
 0002:00002580       ?candidate_modules@?1??try_get_AppPolicyGetShowDeveloperDiagnostic@@YAP6AJPEAXPEAW4AppPolicyShowDeveloperDiagnostic@@@ZXZ@4QBW4module_id@?A0x391cf84c@@B 000000018001f580     libucrt:winapi_thunks.obj
 0002:000025ac       ?candidate_modules@?1??try_get_AppPolicyGetWindowingModel@@YAP6AJPEAXPEAW4AppPolicyWindowingModel@@@ZXZ@4QBW4module_id@?A0x391cf84c@@B 000000018001f5ac     libucrt:winapi_thunks.obj
 0002:000037d0       ?LcidToLocaleNameTable@?A0x881e4c05@@3QBULcidToLocaleName@1@B 00000001800207d0     libucrt:lcidtoname_downlevel.obj
 0002:00005230       ?LocaleNameToIndexTable@?A0x881e4c05@@3QBULocaleNameIndex@1@B 0000000180022230     libucrt:lcidtoname_downlevel.obj
 0002:00006ad0       __real_ninf                0000000180023ad0     libucrt:log10.obj
 0002:00006ae0       __real_inf                 0000000180023ae0     libucrt:log10.obj
 0002:00006af0       __real_neg_qnan            0000000180023af0     libucrt:log10.obj
 0002:00006b00       __real_qnanbit             0000000180023b00     libucrt:log10.obj
 0002:00006b10       __int_1023                 0000000180023b10     libucrt:log10.obj
 0002:00006b20       __mask_001                 0000000180023b20     libucrt:log10.obj
 0002:00006b30       __mask_mant                0000000180023b30     libucrt:log10.obj
 0002:00006b40       __mask_mant_top8           0000000180023b40     libucrt:log10.obj
 0002:00006b50       __mask_mant9               0000000180023b50     libucrt:log10.obj
 0002:00006b60       __real_log10_e             0000000180023b60     libucrt:log10.obj
 0002:00006b70       __real_log10_e_lead        0000000180023b70     libucrt:log10.obj
 0002:00006b80       __real_log10_e_tail        0000000180023b80     libucrt:log10.obj
 0002:00006b90       __real_log10_2_lead        0000000180023b90     libucrt:log10.obj
 0002:00006ba0       __real_log10_2_tail        0000000180023ba0     libucrt:log10.obj
 0002:00006bb0       __real_two                 0000000180023bb0     libucrt:log10.obj
 0002:00006bc0       __real_one                 0000000180023bc0     libucrt:log10.obj
 0002:00006bd0       __real_half                0000000180023bd0     libucrt:log10.obj
 0002:00006be0       __mask_100                 0000000180023be0     libucrt:log10.obj
 0002:00006bf0       __real_1_over_512          0000000180023bf0     libucrt:log10.obj
 0002:00006c00       __real_1_over_2            0000000180023c00     libucrt:log10.obj
 0002:00006c10       __real_1_over_3            0000000180023c10     libucrt:log10.obj
 0002:00006c20       __real_1_over_4            0000000180023c20     libucrt:log10.obj
 0002:00006c30       __real_1_over_5            0000000180023c30     libucrt:log10.obj
 0002:00006c40       __real_1_over_6            0000000180023c40     libucrt:log10.obj
 0002:00006c50       __real_neg_1023            0000000180023c50     libucrt:log10.obj
 0002:00006c60       __mask_2045                0000000180023c60     libucrt:log10.obj
 0002:00006c70       __real_threshold           0000000180023c70     libucrt:log10.obj
 0002:00006c80       __real_near_one_lt         0000000180023c80     libucrt:log10.obj
 0002:00006c90       __real_near_one_gt         0000000180023c90     libucrt:log10.obj
 0002:00006ca0       __real_min_norm            0000000180023ca0     libucrt:log10.obj
 0002:00006cb0       __real_notsign             0000000180023cb0     libucrt:log10.obj
 0002:00006cc0       __real_ca1                 0000000180023cc0     libucrt:log10.obj
 0002:00006cd0       __real_ca2                 0000000180023cd0     libucrt:log10.obj
 0002:00006ce0       __real_ca3                 0000000180023ce0     libucrt:log10.obj
 0002:00006cf0       __real_ca4                 0000000180023cf0     libucrt:log10.obj
 0002:00006d00       __mask_lower               0000000180023d00     libucrt:log10.obj
 0002:00006d10       __flag_x_zero              0000000180023d10     libucrt:log10.obj
 0002:00006d14       __flag_x_neg               0000000180023d14     libucrt:log10.obj
 0002:00006d18       __flag_x_nan               0000000180023d18     libucrt:log10.obj
 0002:00008570       __real@433fffffffffffff    0000000180025570     libucrt:fpsr.obj
 0002:00008578       __real@c33fffffffffffff    0000000180025578     libucrt:fpsr.obj
 0002:00008b6b       ?d@?1??msgpack_pack_false@@9@4EB 0000000180025b6b     libmsgpack:objectc.obj
 0002:00008b6c       ?d@?1??msgpack_pack_nil@@9@4EB 0000000180025b6c     libmsgpack:objectc.obj
 0002:00008b6d       ?d@?1??msgpack_pack_true@@9@4EB 0000000180025b6d     libmsgpack:objectc.obj
 0002:00008b70       $cppxdata$??$New@VFunctionTemplate@v8@@@Nan@@YA?AV?$Local@VFunctionTemplate@v8@@@v8@@P6AXAEBV?$FunctionCallbackInfo@VValue@v8@@@0@@ZV?$Local@VValue@v8@@@2@@Z 0000000180025b70     msgpack.obj
 0002:00008b98       $cppxdata$?init@@YAXV?$Local@VObject@v8@@@v8@@@Z 0000000180025b98     msgpack.obj
 0002:00008bc0       $cppxdata$?unpack@@YAXAEBV?$FunctionCallbackInfo@VValue@v8@@@Nan@@@Z 0000000180025bc0     msgpack.obj
 0002:00008be8       $cppxdata$?pack@@YAXAEBV?$FunctionCallbackInfo@VValue@v8@@@Nan@@@Z 0000000180025be8     msgpack.obj
 0002:00008c10       $cppxdata$??__Esbuffers@@YAXXZ 0000000180025c10     msgpack.obj
 0002:00008c38       $cppxdata$??1MsgpackZone@@QEAA@XZ 0000000180025c38     msgpack.obj
 0002:00008c60       $cppxdata$??__Fmsgpack_unpack_template@@YAXXZ 0000000180025c60     msgpack.obj
 0002:00008c88       $cppxdata$?ThrowError@Nan@@YAXPEBD@Z 0000000180025c88     msgpack.obj
 0002:000094e0       $unwind$_seh_filter_exe    00000001800264e0     libucrt:exception_filter.obj
 0002:000094e0       $unwind$msgpack_sbuffer_write 00000001800264e0     msgpack.obj
 0002:000094e0       $unwind$??$ensure_buffer_is_big_enough@_W@formatting_buffer@__crt_stdio_output@@QEAA_N_K@Z 00000001800264e0     libucrt:output.obj
 0002:000094e0       $unwind$__acrt_lowio_create_handle_array 00000001800264e0     libucrt:osfinfo.obj
 0002:000094e0       $unwind$__acrt_free_locale 00000001800264e0     libucrt:locale_refcounting.obj
 0002:000094e0       $unwind$_wassert           00000001800264e0     libucrt:assert.obj
 0002:000094e0       $unwind$?Is_bad_exception_allowed@@YAEPEBU_s_ESTypeList@@@Z 00000001800264e0     libvcruntime:frame.obj
 0002:000094e0       $unwind$_initterm          00000001800264e0     libucrt:initterm.obj
 0002:000094e0       $unwind$__scrt_dllmain_exception_filter 00000001800264e0     LIBCMT:utility.obj
 0002:000094e0       $unwind$_recalloc_base     00000001800264e0     libucrt:recalloc.obj
 0002:000094e0       $unwind$__acrt_show_wide_message_box 00000001800264e0     libucrt:crtmbox.obj
 0002:000094e0       $unwind$?GetHandlerSearchState@__FrameHandler3@@SAHPEA_KPEAU_xDISPATCHER_CONTEXT@@PEBU_s_FuncInfo@@@Z 00000001800264e0     libvcruntime:frame.obj
 0002:000094e0       $unwind$?setSBCS@@YAXPEAU__crt_multibyte_data@@@Z 00000001800264e0     libucrt:mbctype.obj
 0002:000094e0       $unwind$??$ensure_buffer_is_big_enough@D@formatting_buffer@__crt_stdio_output@@QEAA_N_K@Z 00000001800264e0     libucrt:output.obj
 0002:000094f4       $unwind$?FunctionCallbackWrapper@imp@Nan@@YAXAEBV?$FunctionCallbackInfo@VValue@v8@@@v8@@@Z 00000001800264f4     msgpack.obj
 0002:00009508       $unwind$?ThrowError@Nan@@YAXPEBD@Z 0000000180026508     msgpack.obj
 0002:00009518       $stateUnwindMap$?ThrowError@Nan@@YAXPEBD@Z 0000000180026518     msgpack.obj
 0002:00009520       $ip2state$?ThrowError@Nan@@YAXPEBD@Z 0000000180026520     msgpack.obj
 0002:00009538       $unwind$?DecodeWrite@Nan@@YA_JPEAD_KV?$Local@VValue@v8@@@v8@@W4Encoding@1@@Z 0000000180026538     msgpack.obj
 0002:00009538       $unwind$strpbrk            0000000180026538     libucrt:strpbrk.obj
 0002:00009548       $unwind$??__Fmsgpack_unpack_template@@YAXXZ 0000000180026548     msgpack.obj
 0002:00009558       $stateUnwindMap$??__Esbuffers@@YAXXZ 0000000180026558     msgpack.obj
 0002:00009558       $stateUnwindMap$??__Fmsgpack_unpack_template@@YAXXZ 0000000180026558     msgpack.obj
 0002:00009560       $unwind$??0MsgpackException@@QEAA@PEBD@Z 0000000180026560     msgpack.obj
 0002:0000956c       $unwind$??1MsgpackZone@@QEAA@XZ 000000018002656c     msgpack.obj
 0002:00009580       $ip2state$??1MsgpackZone@@QEAA@XZ 0000000180026580     msgpack.obj
 0002:00009588       $unwind$??__Esbuffers@@YAXXZ 0000000180026588     msgpack.obj
 0002:00009598       $ip2state$??__Esbuffers@@YAXXZ 0000000180026598     msgpack.obj
 0002:000095a0       $unwind$__acrt_FlsSetValue 00000001800265a0     libucrt:winapi_thunks.obj
 0002:000095a0       $unwind$?SetUnwindTryBlock@__FrameHandler3@@SAXPEA_KPEAU_xDISPATCHER_CONTEXT@@PEBU_s_FuncInfo@@H@Z 00000001800265a0     libvcruntime:ehstate.obj
 0002:000095a0       $unwind$?replace_current_thread_locale_nolock@@YAXQEAU__acrt_ptd@@QEAU__crt_locale_data@@@Z 00000001800265a0     libucrt:per_thread_data.obj
 0002:000095a0       $unwind$strncpy_s          00000001800265a0     libucrt:strncpy_s.obj
 0002:000095a0       $unwind$_fclose_nolock     00000001800265a0     libucrt:fclose.obj
 0002:000095a0       $unwind$__acrt_fp_strflt_to_string 00000001800265a0     libucrt:_fptostr.obj
 0002:000095a0       $unwind$??_Gbad_array_new_length@std@@UEAAPEAXI@Z 00000001800265a0     LIBCMT:throw_bad_alloc.obj
 0002:000095a0       $unwind$__acrt_execute_uninitializers 00000001800265a0     libucrt:shared_initialization.obj
 0002:000095a0       $unwind$_RTC_Initialize    00000001800265a0     LIBCMT:initsect.obj
 0002:000095a0       $unwind$_RTC_Terminate     00000001800265a0     LIBCMT:initsect.obj
 0002:000095a0       $unwind$?DloadGetSRWLockFunctionPointers@@YAEXZ 00000001800265a0     DelayImp:delayhlp.obj
 0002:000095a0       $unwind$__acrt_stdio_allocate_buffer_nolock 00000001800265a0     libucrt:_getbuf.obj
 0002:000095a0       $unwind$wcsncat_s          00000001800265a0     libucrt:wcsncat_s.obj
 0002:000095a0       $unwind$??_Gexception@std@@UEAAPEAXI@Z 00000001800265a0     libcpmt:xthrow.obj
 0002:000095a0       $unwind$__acrt_errno_map_os_error 00000001800265a0     libucrt:errno.obj
 0002:000095a0       $unwind$__acrt_stdio_begin_temporary_buffering_nolock 00000001800265a0     libucrt:_sftbuf.obj
 0002:000095a0       $unwind$__acrt_LocaleNameToLCID 00000001800265a0     libucrt:winapi_thunks.obj
 0002:000095a0       $unwind$?force_decimal_point@__crt_stdio_output@@YAXPEADQEAU__crt_locale_pointers@@@Z 00000001800265a0     libucrt:output.obj
 0002:000095a0       $unwind$msgpack_zone_new   00000001800265a0     libmsgpack:zone.obj
 0002:000095a0       $unwind$msgpack_zone_destroy 00000001800265a0     libmsgpack:zone.obj
 0002:000095a0       $unwind$__acrt_uninitialize_lowio 00000001800265a0     libucrt:ioinit.obj
 0002:000095a0       $unwind$_FindAndUnlinkFrame 00000001800265a0     libvcruntime:risctrnsctrl.obj
 0002:000095a0       $unwind$msgpack_zone_init  00000001800265a0     libmsgpack:zone.obj
 0002:000095a0       $unwind$_realloc_base      00000001800265a0     libucrt:realloc_base.obj
 0002:000095a0       $unwind$msgpack_unpacker_free 00000001800265a0     libmsgpack:unpack.obj
 0002:000095a0       $unwind$msgpack_unpacker_new 00000001800265a0     libmsgpack:unpack.obj
 0002:000095a0       $unwind$_initterm_e        00000001800265a0     libucrt:initterm.obj
 0002:000095a0       $unwind$msgpack_unpacker_destroy 00000001800265a0     libmsgpack:unpack.obj
 0002:000095a0       $unwind$__acrt_can_show_message_box 00000001800265a0     libucrt:winapi_thunks.obj
 0002:000095a0       $unwind$??_Gbad_alloc@std@@UEAAPEAXI@Z 00000001800265a0     libcpmt:xthrow.obj
 0002:000095a0       $unwind$??_Gbad_exception@std@@UEAAPEAXI@Z 00000001800265a0     libvcruntime:frame.obj
 0002:000095a0       $unwind$??_Glength_error@std@@UEAAPEAXI@Z 00000001800265a0     libcpmt:xthrow.obj
 0002:000095a0       $unwind$_close_nolock      00000001800265a0     libucrt:close.obj
 0002:000095a0       $unwind$??_Glogic_error@std@@UEAAPEAXI@Z 00000001800265a0     libcpmt:xthrow.obj
 0002:000095a0       $unwind$_updatetlocinfoEx_nolock 00000001800265a0     libucrt:locale_refcounting.obj
 0002:000095a0       $unwind$__vcrt_FlsSetValue 00000001800265a0     libvcruntime:winapi_downlevel.obj
 0002:000095a0       $unwind$??__Fsbuffers@@YAXXZ 00000001800265a0     msgpack.obj
 0002:000095a0       $unwind$??$common_initialize_environment_nolock@D@@YAHXZ 00000001800265a0     libucrt:environment_initialization.obj
 0002:000095ac       $unwind$?_free_sbuf@@YAXPEADPEAX@Z 00000001800265ac     msgpack.obj
 0002:000095ac       $unwind$__acrt_locale_free_monetary 00000001800265ac     libucrt:initmon.obj
 0002:000095b4       $chain$1$?_free_sbuf@@YAXPEADPEAX@Z 00000001800265b4     msgpack.obj
 0002:000095cc       $chain$2$?_free_sbuf@@YAXPEADPEAX@Z 00000001800265cc     msgpack.obj
 0002:000095dc       $unwind$?v8_to_msgpack@@YAXV?$Local@VValue@v8@@@v8@@PEAUmsgpack_object@@PEAUmsgpack_zone@@_K@Z 00000001800265dc     msgpack.obj
 0002:000095f4       $chain$0$?v8_to_msgpack@@YAXV?$Local@VValue@v8@@@v8@@PEAUmsgpack_object@@PEAUmsgpack_zone@@_K@Z 00000001800265f4     msgpack.obj
 0002:00009608       $chain$1$?v8_to_msgpack@@YAXV?$Local@VValue@v8@@@v8@@PEAUmsgpack_object@@PEAUmsgpack_zone@@_K@Z 0000000180026608     msgpack.obj
 0002:0000961c       $chain$2$?v8_to_msgpack@@YAXV?$Local@VValue@v8@@@v8@@PEAUmsgpack_object@@PEAUmsgpack_zone@@_K@Z 000000018002661c     msgpack.obj
 0002:0000962c       $chain$3$?v8_to_msgpack@@YAXV?$Local@VValue@v8@@@v8@@PEAUmsgpack_object@@PEAUmsgpack_zone@@_K@Z 000000018002662c     msgpack.obj
 0002:0000963c       $unwind$?msgpack_to_v8@@YA?AV?$Local@VValue@v8@@@v8@@PEAUmsgpack_object@@@Z 000000018002663c     msgpack.obj
 0002:00009650       $chain$0$?msgpack_to_v8@@YA?AV?$Local@VValue@v8@@@v8@@PEAUmsgpack_object@@@Z 0000000180026650     msgpack.obj
 0002:00009664       $chain$1$?msgpack_to_v8@@YA?AV?$Local@VValue@v8@@@v8@@PEAUmsgpack_object@@@Z 0000000180026664     msgpack.obj
 0002:00009674       $unwind$?pack@@YAXAEBV?$FunctionCallbackInfo@VValue@v8@@@Nan@@@Z 0000000180026674     msgpack.obj
 0002:00009690       $stateUnwindMap$?pack@@YAXAEBV?$FunctionCallbackInfo@VValue@v8@@@Nan@@@Z 0000000180026690     msgpack.obj
 0002:000096b8       $tryMap$?pack@@YAXAEBV?$FunctionCallbackInfo@VValue@v8@@@Nan@@@Z 00000001800266b8     msgpack.obj
 0002:000096cc       $handlerMap$0$?pack@@YAXAEBV?$FunctionCallbackInfo@VValue@v8@@@Nan@@@Z 00000001800266cc     msgpack.obj
 0002:000096e0       $ip2state$?pack@@YAXAEBV?$FunctionCallbackInfo@VValue@v8@@@Nan@@@Z 00000001800266e0     msgpack.obj
 0002:00009740       $unwind$?catch$20@?0??pack@@YAXAEBV?$FunctionCallbackInfo@VValue@v8@@@Nan@@@Z@4HA 0000000180026740     msgpack.obj
 0002:00009754       $unwind$?unpack@@YAXAEBV?$FunctionCallbackInfo@VValue@v8@@@Nan@@@Z 0000000180026754     msgpack.obj
 0002:00009778       $stateUnwindMap$?unpack@@YAXAEBV?$FunctionCallbackInfo@VValue@v8@@@Nan@@@Z 0000000180026778     msgpack.obj
 0002:000097a8       $tryMap$?unpack@@YAXAEBV?$FunctionCallbackInfo@VValue@v8@@@Nan@@@Z 00000001800267a8     msgpack.obj
 0002:000097bc       $handlerMap$0$?unpack@@YAXAEBV?$FunctionCallbackInfo@VValue@v8@@@Nan@@@Z 00000001800267bc     msgpack.obj
 0002:000097d0       $ip2state$?unpack@@YAXAEBV?$FunctionCallbackInfo@VValue@v8@@@Nan@@@Z 00000001800267d0     msgpack.obj
 0002:00009850       $unwind$?catch$14@?0??unpack@@YAXAEBV?$FunctionCallbackInfo@VValue@v8@@@Nan@@@Z@4HA 0000000180026850     msgpack.obj
 0002:00009864       $unwind$?init@@YAXV?$Local@VObject@v8@@@v8@@@Z 0000000180026864     msgpack.obj
 0002:00009880       $stateUnwindMap$?init@@YAXV?$Local@VObject@v8@@@v8@@@Z 0000000180026880     msgpack.obj
 0002:000098a0       $ip2state$?init@@YAXV?$Local@VObject@v8@@@v8@@@Z 00000001800268a0     msgpack.obj
 0002:000098e8       $unwind$??0length_error@std@@QEAA@PEBD@Z 00000001800268e8     libcpmt:xthrow.obj
 0002:000098e8       $unwind$?_Growmap@?$deque@PEAUmsgpack_sbuffer@@V?$allocator@PEAUmsgpack_sbuffer@@@std@@@std@@IEAAX_K@Z 00000001800268e8     msgpack.obj
 0002:000098e8       $unwind$?__mbrtowc_utf8@__crt_mbstring@@YA_KPEA_WPEBD_KPEAU_Mbstatet@@@Z 00000001800268e8     libucrt:mbrtowc.obj
 0002:000098e8       $unwind$??$common_xtox_s@K_W@@YAHKQEA_W_KI_N@Z 00000001800268e8     libucrt:xtoa.obj
 0002:000098f0       $chain$2$?_Growmap@?$deque@PEAUmsgpack_sbuffer@@V?$allocator@PEAUmsgpack_sbuffer@@@std@@@std@@IEAAX_K@Z 00000001800268f0     msgpack.obj
 0002:0000990c       $chain$4$?_Growmap@?$deque@PEAUmsgpack_sbuffer@@V?$allocator@PEAUmsgpack_sbuffer@@@std@@@std@@IEAAX_K@Z 000000018002690c     msgpack.obj
 0002:00009924       $chain$5$?_Growmap@?$deque@PEAUmsgpack_sbuffer@@V?$allocator@PEAUmsgpack_sbuffer@@@std@@@std@@IEAAX_K@Z 0000000180026924     msgpack.obj
 0002:00009934       $chain$7$?_Growmap@?$deque@PEAUmsgpack_sbuffer@@V?$allocator@PEAUmsgpack_sbuffer@@@std@@@std@@IEAAX_K@Z 0000000180026934     msgpack.obj
 0002:00009950       $chain$8$?_Growmap@?$deque@PEAUmsgpack_sbuffer@@V?$allocator@PEAUmsgpack_sbuffer@@@std@@@std@@IEAAX_K@Z 0000000180026950     msgpack.obj
 0002:00009960       $unwind$__vcrt_thread_detach 0000000180026960     libvcruntime:initialization.obj
 0002:00009960       $unwind$uninitialize_allocated_io_buffers 0000000180026960     libucrt:initialization.obj
 0002:00009960       $unwind$_get_osfhandle     0000000180026960     libucrt:osfinfo.obj
 0002:00009960       $unwind$__vcrt_thread_attach 0000000180026960     libvcruntime:initialization.obj
 0002:00009960       $unwind$__vcrt_uninitialize_critical 0000000180026960     libvcruntime:initialization.obj
 0002:00009960       $unwind$__vcrt_uninitialize 0000000180026960     libvcruntime:initialization.obj
 0002:00009960       $unwind$abort              0000000180026960     libucrt:abort.obj
 0002:00009960       $unwind$__acrt_update_thread_multibyte_data 0000000180026960     libucrt:mbctype.obj
 0002:00009960       $unwind$__acrt_initialize_multibyte 0000000180026960     libucrt:mbctype.obj
 0002:00009960       $unwind$__vcrt_initialize  0000000180026960     libvcruntime:initialization.obj
 0002:00009960       $unwind$__acrt_thread_detach 0000000180026960     libucrt:initialization.obj
 0002:00009960       $unwind$__acrt_thread_attach 0000000180026960     libucrt:initialization.obj
 0002:00009960       $unwind$__acrt_release_locale_ref 0000000180026960     libucrt:locale_refcounting.obj
 0002:00009960       $unwind$_isatty            0000000180026960     libucrt:isatty.obj
 0002:00009960       $unwind$_errno             0000000180026960     libucrt:errno.obj
 0002:00009960       $unwind$__doserrno         0000000180026960     libucrt:errno.obj
 0002:00009960       $unwind$__acrt_uninitialize_critical 0000000180026960     libucrt:initialization.obj
 0002:00009960       $unwind$__acrt_uninitialize 0000000180026960     libucrt:initialization.obj
 0002:00009960       $unwind$__GSHandlerCheck   0000000180026960     LIBCMT:gshandler.obj
 0002:00009960       $unwind$??$uninitialize_environment_internal@D@@YAXAEAPEAPEAD@Z 0000000180026960     libucrt:environment_initialization.obj
 0002:00009960       $unwind$atexit             0000000180026960     LIBCMT:utility.obj
 0002:00009960       $unwind$?state_case_size@?$output_processor@_WV?$string_output_adapter@_W@__crt_stdio_output@@V?$standard_base@_WV?$string_output_adapter@_W@__crt_stdio_output@@@2@@__crt_stdio_output@@AEAA_NXZ 0000000180026960     libucrt:output.obj
 0002:00009960       $unwind$_set_error_mode    0000000180026960     libucrt:set_error_mode.obj
 0002:00009960       $unwind$__FrameUnwindFilter 0000000180026960     libvcruntime:ehhelpers.obj
 0002:00009960       $unwind$msgpack_unpacker_reset 0000000180026960     libmsgpack:unpack.obj
 0002:00009960       $unwind$?DloadReleaseSectionWriteAccess@@YAXXZ 0000000180026960     DelayImp:delayhlp.obj
 0002:00009960       $unwind$uninitialize_environment 0000000180026960     libucrt:initialization.obj
 0002:00009960       $unwind$_GetThrowImageBase 0000000180026960     libvcruntime:risctrnsctrl.obj
 0002:00009960       $unwind$_GetImageBase      0000000180026960     libvcruntime:risctrnsctrl.obj
 0002:00009960       $unwind$_fileno            0000000180026960     libucrt:fileno.obj
 0002:00009960       $unwind$__scrt_initialize_default_local_stdio_options 0000000180026960     LIBCMT:default_local_stdio_options.obj
 0002:00009960       $unwind$?state_case_size@?$output_processor@DV?$stream_output_adapter@D@__crt_stdio_output@@V?$standard_base@DV?$stream_output_adapter@D@__crt_stdio_output@@@2@@__crt_stdio_output@@AEAA_NXZ 0000000180026960     libucrt:output.obj
 0002:00009960       $unwind$?initialize_multibyte@@YAHXZ 0000000180026960     libucrt:multibyte_initializer.obj
 0002:00009960       $unwind$__acrt_initialize_command_line 0000000180026960     libucrt:argv_data.obj
 0002:00009960       $unwind$_msize_base        0000000180026960     libucrt:msize.obj
 0002:00009960       $unwind$__pctype_func      0000000180026960     libucrt:ctype.obj
 0002:00009960       $unwind$__report_rangecheckfailure 0000000180026960     LIBCMT:gs_report.obj
 0002:00009960       $unwind$__acrt_DownlevelLocaleNameToLCID 0000000180026960     libucrt:lcidtoname_downlevel.obj
 0002:00009960       $unwind$?validate_stream_is_ansi_if_required@?$__acrt_stdio_char_traits@D@@SA_NQEAU_iobuf@@@Z 0000000180026960     libucrt:output.obj
 0002:00009960       $unwind$?dllmain_crt_dispatch@@YAHQEAUHINSTANCE__@@KQEAX@Z 0000000180026960     LIBCMT:dll_dllmain.obj
 0002:00009960       $unwind$__vcrt_initialize_ptd 0000000180026960     libvcruntime:per_thread_data.obj
 0002:00009960       $unwind$__vcrt_uninitialize_ptd 0000000180026960     libvcruntime:per_thread_data.obj
 0002:00009960       $unwind$__acrt_initialize_heap 0000000180026960     libucrt:heap_handle.obj
 0002:00009960       $unwind$__scrt_dllmain_crt_thread_detach 0000000180026960     LIBCMT:utility.obj
 0002:00009960       $unwind$?__c32rtomb_utf8@__crt_mbstring@@YA_KPEAD_UPEAU_Mbstatet@@@Z 0000000180026960     libucrt:c32rtomb.obj
 0002:00009960       $unwind$_stricmp           0000000180026960     libucrt:stricmp.obj
 0002:00009960       $unwind$_invoke_watson     0000000180026960     libucrt:invalid_parameter.obj
 0002:00009960       $unwind$__scrt_dllmain_crt_thread_attach 0000000180026960     LIBCMT:utility.obj
 0002:00009960       $unwind$__scrt_dllmain_uninitialize_critical 0000000180026960     LIBCMT:utility.obj
 0002:00009960       $unwind$__scrt_acquire_startup_lock 0000000180026960     LIBCMT:utility.obj
 0002:00009960       $unwind$__acrt_AreFileApisANSI 0000000180026960     libucrt:winapi_thunks.obj
 0002:00009960       $unwind$??$uninitialize_environment_internal@_W@@YAXAEAPEAPEA_W@Z 0000000180026960     libucrt:environment_initialization.obj
 0002:00009960       $unwind$tolower            0000000180026960     libucrt:tolower_toupper.obj
 0002:00009960       $unwind$__dcrt_uninitialize_environments_nolock 0000000180026960     libucrt:environment_initialization.obj
 0002:00009960       $unwind$__scrt_dllmain_uninitialize_c 0000000180026960     LIBCMT:utility.obj
 0002:00009960       $unwind$?state_case_size@?$output_processor@_WV?$stream_output_adapter@_W@__crt_stdio_output@@V?$standard_base@_WV?$stream_output_adapter@_W@__crt_stdio_output@@@2@@__crt_stdio_output@@AEAA_NXZ 0000000180026960     libucrt:output.obj
 0002:00009960       $unwind$?GetCurrentState@__FrameHandler3@@SAHPEA_KPEAU_xDISPATCHER_CONTEXT@@PEBU_s_FuncInfo@@@Z 0000000180026960     libvcruntime:ehstate.obj
 0002:00009960       $unwind$__dcrt_terminate_console_output 0000000180026960     libucrt:initcon.obj
 0002:00009960       $unwind$initialize_c       0000000180026960     libucrt:initialization.obj
 0002:00009960       $unwind$__acrt_uninitialize_ptd 0000000180026960     libucrt:per_thread_data.obj
 0002:00009960       $unwind$__acrt_initialize_ptd 0000000180026960     libucrt:per_thread_data.obj
 0002:00009960       $unwind$_statfp            0000000180026960     libucrt:fpctrl.obj
 0002:00009960       $unwind$?_Xlen@?$deque@PEAUmsgpack_sbuffer@@V?$allocator@PEAUmsgpack_sbuffer@@@std@@@std@@IEBAXXZ 0000000180026960     msgpack.obj
 0002:00009960       $unwind$__scrt_dllmain_after_initialize_c 0000000180026960     LIBCMT:utility.obj
 0002:00009960       $unwind$__vcrt_getptd      0000000180026960     libvcruntime:per_thread_data.obj
 0002:00009960       $unwind$__vcrt_freefls     0000000180026960     libvcruntime:per_thread_data.obj
 0002:00009960       $unwind$__scrt_dllmain_before_initialize_c 0000000180026960     LIBCMT:utility.obj
 0002:00009960       $unwind$__std_terminate    0000000180026960     libvcruntime:ehhelpers.obj
 0002:00009960       $unwind$_set_errno_from_matherr 0000000180026960     libucrt:fpexcept.obj
 0002:00009968       $unwind$??$New@VFunctionTemplate@v8@@@Nan@@YA?AV?$Local@VFunctionTemplate@v8@@@v8@@P6AXAEBV?$FunctionCallbackInfo@VValue@v8@@@0@@ZV?$Local@VValue@v8@@@2@@Z 0000000180026968     msgpack.obj
 0002:00009988       $stateUnwindMap$??$New@VFunctionTemplate@v8@@@Nan@@YA?AV?$Local@VFunctionTemplate@v8@@@v8@@P6AXAEBV?$FunctionCallbackInfo@VValue@v8@@@0@@ZV?$Local@VValue@v8@@@2@@Z 0000000180026988     msgpack.obj
 0002:00009998       $ip2state$??$New@VFunctionTemplate@v8@@@Nan@@YA?AV?$Local@VFunctionTemplate@v8@@@v8@@P6AXAEBV?$FunctionCallbackInfo@VValue@v8@@@0@@ZV?$Local@VValue@v8@@@2@@Z 0000000180026998     msgpack.obj
 0002:000099c0       $unwind$__acrt_AppPolicyGetShowDeveloperDiagnosticInternal 00000001800269c0     libucrt:winapi_thunks.obj
 0002:000099c0       $unwind$??0bad_exception@std@@QEAA@AEBV01@@Z 00000001800269c0     libvcruntime:frame.obj
 0002:000099c0       $unwind$__acrt_AppPolicyGetProcessTerminationMethodInternal 00000001800269c0     libucrt:winapi_thunks.obj
 0002:000099c0       $unwind$__vcrt_FlsAlloc    00000001800269c0     libvcruntime:winapi_downlevel.obj
 0002:000099c0       $unwind$_clrfp             00000001800269c0     libucrt:fpctrl.obj
 0002:000099c0       $unwind$__vcrt_initialize_locks 00000001800269c0     libvcruntime:locks.obj
 0002:000099c0       $unwind$__acrt_AppPolicyGetWindowingModelInternal 00000001800269c0     libucrt:winapi_thunks.obj
 0002:000099c0       $unwind$__vcrt_uninitialize_locks 00000001800269c0     libvcruntime:locks.obj
 0002:000099c0       $unwind$?GetUnwindTryBlock@__FrameHandler3@@SAHPEA_KPEAU_xDISPATCHER_CONTEXT@@PEBU_s_FuncInfo@@@Z 00000001800269c0     libvcruntime:ehstate.obj
 0002:000099c0       $unwind$__vcrt_FlsFree     00000001800269c0     libvcruntime:winapi_downlevel.obj
 0002:000099c0       $unwind$_clearfp           00000001800269c0     libucrt:ieee.obj
 0002:000099c0       $unwind$__vcrt_FlsGetValue 00000001800269c0     libvcruntime:winapi_downlevel.obj
 0002:000099c0       $unwind$__acrt_getptd_head 00000001800269c0     libucrt:per_thread_data.obj
 0002:000099c0       $unwind$__scrt_uninitialize_crt 00000001800269c0     LIBCMT:utility.obj
 0002:000099c0       $unwind$__acrt_freeptd     00000001800269c0     libucrt:per_thread_data.obj
 0002:000099c0       $unwind$__acrt_FlsGetValue 00000001800269c0     libucrt:winapi_thunks.obj
 0002:000099c0       $unwind$__scrt_initialize_crt 00000001800269c0     LIBCMT:utility.obj
 0002:000099c0       $unwind$__acrt_FlsFree     00000001800269c0     libucrt:winapi_thunks.obj
 0002:000099c0       $unwind$?StateFromIp@__FrameHandler3@@SAHPEBU_s_FuncInfo@@PEAU_xDISPATCHER_CONTEXT@@_K@Z 00000001800269c0     libvcruntime:ehstate.obj
 0002:000099c0       $unwind$__acrt_FlsAlloc    00000001800269c0     libucrt:winapi_thunks.obj
 0002:000099c0       $unwind$__scrt_release_startup_lock 00000001800269c0     LIBCMT:utility.obj
 0002:000099c0       $unwind$feholdexcept       00000001800269c0     libucrt:feholdexcept.obj
 0002:000099c0       $unwind$?internal_isupper_l@@YA_NHQEAU__crt_locale_pointers@@@Z 00000001800269c0     libucrt:tolower_toupper.obj
 0002:000099c0       $unwind$__acrt_uninitialize_winapi_thunks 00000001800269c0     libucrt:winapi_thunks.obj
 0002:000099c0       $unwind$__acrt_update_locale_info 00000001800269c0     libucrt:locale_update.obj
 0002:000099c0       $unwind$__acrt_update_multibyte_info 00000001800269c0     libucrt:locale_update.obj
 0002:000099c0       $unwind$__acrt_get_parent_window 00000001800269c0     libucrt:winapi_thunks.obj
 0002:000099c0       $unwind$fesetenv           00000001800269c0     libucrt:fesetenv.obj
 0002:000099c0       $unwind$fegetenv           00000001800269c0     libucrt:fegetenv.obj
 0002:000099c0       $unwind$_onexit            00000001800269c0     LIBCMT:utility.obj
 0002:000099c0       $unwind$??_Gtype_info@@UEAAPEAXI@Z 00000001800269c0     LIBCMT:std_type_info_static.obj
 0002:000099c0       $unwind$_malloc_base       00000001800269c0     libucrt:malloc_base.obj
 0002:000099c0       $unwind$_fflush_nolock     00000001800269c0     libucrt:fflush.obj
 0002:000099c0       $unwind$?state_case_normal@?$output_processor@DV?$stream_output_adapter@D@__crt_stdio_output@@V?$standard_base@DV?$stream_output_adapter@D@__crt_stdio_output@@@2@@__crt_stdio_output@@AEAA_NXZ 00000001800269c0     libucrt:output.obj
 0002:000099c0       $unwind$__raise_securityfailure 00000001800269c0     LIBCMT:gs_report.obj
 0002:000099c0       $unwind$?state_case_normal_tchar@?$output_processor@DV?$stream_output_adapter@D@__crt_stdio_output@@V?$standard_base@DV?$stream_output_adapter@D@__crt_stdio_output@@@2@@__crt_stdio_output@@AEAA_ND@Z 00000001800269c0     libucrt:output.obj
 0002:000099c0       $unwind$??0bad_array_new_length@std@@QEAA@AEBV01@@Z 00000001800269c0     LIBCMT:throw_bad_alloc.obj
 0002:000099c0       $unwind$??0exception@std@@QEAA@AEBV01@@Z 00000001800269c0     libcpmt:xthrow.obj
 0002:000099c0       $unwind$?ExecutionInCatch@__FrameHandler3@@SA_NPEAU_xDISPATCHER_CONTEXT@@PEBU_s_FuncInfo@@@Z 00000001800269c0     libvcruntime:risctrnsctrl.obj
 0002:000099c0       $unwind$?load_exe_hook@@YAP6A_JXZIPEAUDelayLoadInfo@@@Z 00000001800269c0     win_delay_load_hook.obj
 0002:000099c0       $unwind$__acrt_uninitialize_stdio 00000001800269c0     libucrt:_file.obj
 0002:000099c0       $unwind$?type_case_c_tchar@?$output_processor@DV?$stream_output_adapter@D@__crt_stdio_output@@V?$standard_base@DV?$stream_output_adapter@D@__crt_stdio_output@@@2@@__crt_stdio_output@@AEAA_ND@Z 00000001800269c0     libucrt:output.obj
 0002:000099c0       $unwind$_SetImageBase      00000001800269c0     libvcruntime:risctrnsctrl.obj
 0002:000099c0       $unwind$?type_case_s@?$output_processor@DV?$stream_output_adapter@D@__crt_stdio_output@@V?$standard_base@DV?$stream_output_adapter@D@__crt_stdio_output@@@2@@__crt_stdio_output@@AEAA_NXZ 00000001800269c0     libucrt:output.obj
 0002:000099c0       $unwind$_SetThrowImageBase 00000001800269c0     libvcruntime:risctrnsctrl.obj
 0002:000099c0       $unwind$_CreateFrameInfo   00000001800269c0     libvcruntime:risctrnsctrl.obj
 0002:000099c0       $unwind$wcscpy_s           00000001800269c0     libucrt:wcscpy_s.obj
 0002:000099c0       $unwind$wcscat_s           00000001800269c0     libucrt:wcscat_s.obj
 0002:000099c0       $unwind$msgpack_unpacker_flush_zone 00000001800269c0     libmsgpack:unpack.obj
 0002:000099c0       $unwind$msgpack_unpacker_release_zone 00000001800269c0     libmsgpack:unpack.obj
 0002:000099c0       $unwind$_IsExceptionObjectToBeDestroyed 00000001800269c0     libvcruntime:ehhelpers.obj
 0002:000099c0       $unwind$__acrt_stdio_free_buffer_nolock 00000001800269c0     libucrt:_freebuf.obj
 0002:000099c0       $unwind$__std_exception_destroy 00000001800269c0     libvcruntime:std_exception.obj
 0002:000099c0       $unwind$_callnewh          00000001800269c0     libucrt:new_handler.obj
 0002:000099c0       $unwind$?try_cor_exit_process@@YAXI@Z 00000001800269c0     libucrt:exit.obj
 0002:000099c0       $unwind$?stream_is_at_end_of_file_nolock@@YA_NV__crt_stdio_stream@@@Z 00000001800269c0     libucrt:_flsbuf.obj
 0002:000099c0       $unwind$__acrt_initialize_locks 00000001800269c0     libucrt:locks.obj
 0002:000099c0       $unwind$__acrt_uninitialize_locks 00000001800269c0     libucrt:locks.obj
 0002:000099c0       $unwind$__acrt_get_process_end_policy 00000001800269c0     libucrt:win_policies.obj
 0002:000099c0       $unwind$__acrt_get_developer_information_policy 00000001800269c0     libucrt:win_policies.obj
 0002:000099c0       $unwind$_calloc_base       00000001800269c0     libucrt:calloc_base.obj
 0002:000099c0       $unwind$__acrt_get_windowing_model_policy 00000001800269c0     libucrt:win_policies.obj
 0002:000099c0       $unwind$?exit_or_terminate_process@@YAXI@Z 00000001800269c0     libucrt:exit.obj
 0002:000099c0       $unwind$strcpy_s           00000001800269c0     libucrt:strcpy_s.obj
 0002:000099c0       $unwind$__acrt_allocate_buffer_for_argv 00000001800269c0     libucrt:argv_parsing.obj
 0002:000099c0       $unwind$??2@YAPEAX_K@Z     00000001800269c0     LIBCMT:new_scalar.obj
 0002:000099c0       $unwind$uninitialize_allocated_memory 00000001800269c0     libucrt:initialization.obj
 0002:000099c0       $unwind$initialize_pointers 00000001800269c0     libucrt:initialization.obj
 0002:000099c0       $unwind$?DloadAcquireSectionWriteAccess@@YAXXZ 00000001800269c0     DelayImp:delayhlp.obj
 0002:000099c0       $unwind$__std_type_info_destroy_list 00000001800269c0     libvcruntime:std_type_info.obj
 0002:000099c0       $unwind$??0bad_alloc@std@@QEAA@AEBV01@@Z 00000001800269c0     libcpmt:xthrow.obj
 0002:000099c0       $unwind$??0length_error@std@@QEAA@AEBV01@@Z 00000001800269c0     libcpmt:xthrow.obj
 0002:000099c0       $unwind$??0logic_error@std@@QEAA@AEBV01@@Z 00000001800269c0     libcpmt:xthrow.obj
 0002:000099c0       $unwind$__vcrt_freeptd     00000001800269c0     libvcruntime:per_thread_data.obj
 0002:000099c0       $unwind$?ExFilterRethrow@@YAHPEAU_EXCEPTION_POINTERS@@PEAUEHExceptionRecord@@PEAH@Z 00000001800269c0     libvcruntime:frame.obj
 0002:000099c0       $unwind$_set_statfp        00000001800269c0     libucrt:fpctrl.obj
 0002:000099c8       $unwind$?type_case_s@?$output_processor@_WV?$string_output_adapter@_W@__crt_stdio_output@@V?$standard_base@_WV?$string_output_adapter@_W@__crt_stdio_output@@@2@@__crt_stdio_output@@AEAA_NXZ 00000001800269c8     libucrt:output.obj
 0002:000099c8       $unwind$?type_case_Z@?$output_processor@_WV?$stream_output_adapter@_W@__crt_stdio_output@@V?$standard_base@_WV?$stream_output_adapter@_W@__crt_stdio_output@@@2@@__crt_stdio_output@@AEAA_NXZ 00000001800269c8     libucrt:output.obj
 0002:000099c8       $unwind$?free_crt_array_internal@@YAXQEAPEBX_K@Z 00000001800269c8     libucrt:inittime.obj
 0002:000099c8       $unwind$?type_case_s@?$output_processor@_WV?$stream_output_adapter@_W@__crt_stdio_output@@V?$standard_base@_WV?$stream_output_adapter@_W@__crt_stdio_output@@@2@@__crt_stdio_output@@AEAA_NXZ 00000001800269c8     libucrt:output.obj
 0002:000099c8       $unwind$?type_case_n@?$output_processor@_WV?$string_output_adapter@_W@__crt_stdio_output@@V?$standard_base@_WV?$string_output_adapter@_W@__crt_stdio_output@@@2@@__crt_stdio_output@@AEAA_NXZ 00000001800269c8     libucrt:output.obj
 0002:000099c8       $unwind$?FrameUnwindToEmptyState@__FrameHandler3@@SAXPEA_KPEAU_xDISPATCHER_CONTEXT@@PEBU_s_FuncInfo@@@Z 00000001800269c8     libvcruntime:risctrnsctrl.obj
 0002:000099c8       $unwind$memcpy_s           00000001800269c8     libucrt:cfout.obj
 0002:000099c8       $unwind$__vcrt_getptd_noexit 00000001800269c8     libvcruntime:per_thread_data.obj
 0002:000099c8       $unwind$?type_case_n@?$output_processor@_WV?$stream_output_adapter@_W@__crt_stdio_output@@V?$standard_base@_WV?$stream_output_adapter@_W@__crt_stdio_output@@@2@@__crt_stdio_output@@AEAA_NXZ 00000001800269c8     libucrt:output.obj
 0002:000099c8       $unwind$??R<lambda_ca71763b3c0644891230e4f79ea54fa6>@@QEBAHXZ 00000001800269c8     libucrt:setvbuf.obj
 0002:000099c8       $unwind$?type_case_n@?$output_processor@DV?$stream_output_adapter@D@__crt_stdio_output@@V?$standard_base@DV?$stream_output_adapter@D@__crt_stdio_output@@@2@@__crt_stdio_output@@AEAA_NXZ 00000001800269c8     libucrt:output.obj
 0002:000099c8       $unwind$msgpack_unpacker_execute 00000001800269c8     libmsgpack:unpack.obj
 0002:000099c8       $unwind$??R<lambda_96f4279ff90247a4c5c5d9824f56f8c1>@@QEBA_KXZ 00000001800269c8     libucrt:fwrite.obj
 0002:000099c8       $unwind$?CatchTryBlock@__FrameHandler3@@SAPEBU_s_TryBlockMapEntry@@PEBU_s_FuncInfo@@H@Z 00000001800269c8     libvcruntime:risctrnsctrl.obj
 0002:000099c8       $unwind$__acrt_execute_initializers 00000001800269c8     libucrt:shared_initialization.obj
 0002:000099c8       $unwind$_DllMainCRTStartup 00000001800269c8     LIBCMT:dll_dllmain.obj
 0002:000099c8       $unwind$??0_LocaleUpdate@@QEAA@QEAU__crt_locale_pointers@@@Z 00000001800269c8     libucrt:stricmp.obj
 0002:000099c8       $unwind$__acrt_stdio_flush_nolock 00000001800269c8     libucrt:fflush.obj
 0002:000099c8       $unwind$msgpack_zone_malloc_expand 00000001800269c8     libmsgpack:zone.obj
 0002:000099c8       $unwind$__acrt_stdio_flush_and_write_narrow_nolock 00000001800269c8     libucrt:_flsbuf.obj
 0002:000099c8       $unwind$__acrt_stdio_flush_and_write_wide_nolock 00000001800269c8     libucrt:_flsbuf.obj
 0002:000099c8       $unwind$??$common_lseek_nolock@_J@@YA_JH_JH@Z 00000001800269c8     libucrt:lseek.obj
 0002:000099c8       $unwind$?type_case_Z@?$output_processor@_WV?$string_output_adapter@_W@__crt_stdio_output@@V?$standard_base@_WV?$string_output_adapter@_W@__crt_stdio_output@@@2@@__crt_stdio_output@@AEAA_NXZ 00000001800269c8     libucrt:output.obj
 0002:000099c8       $unwind$__acrt_getptd_noexit 00000001800269c8     libucrt:per_thread_data.obj
 0002:000099c8       $unwind$__acrt_InitializeCriticalSectionEx 00000001800269c8     libucrt:winapi_thunks.obj
 0002:000099c8       $unwind$__vcrt_InitializeCriticalSectionEx 00000001800269c8     libvcruntime:winapi_downlevel.obj
 0002:000099c8       $unwind$__acrt_getptd      00000001800269c8     libucrt:per_thread_data.obj
 0002:000099c8       $unwind$_exception_enabled 00000001800269c8     libucrt:libm_error.obj
 0002:000099c8       $unwind$msgpack_zone_clear 00000001800269c8     libmsgpack:zone.obj
 0002:000099d8       $unwind$_free_base         00000001800269d8     libucrt:free_base.obj
 0002:000099d8       $unwind$__acrt_locale_free_lc_time_if_unreferenced 00000001800269d8     libucrt:locale_refcounting.obj
 0002:000099d8       $unwind$msgpack_zone_free  00000001800269d8     libmsgpack:zone.obj
 0002:000099d8       $unwind$__acrt_locale_free_numeric 00000001800269d8     libucrt:initnum.obj
 0002:000099d8       $unwind$?destroy_fls@@YAXPEAX@Z 00000001800269d8     libucrt:per_thread_data.obj
 0002:000099e0       $unwind$msgpack_zone_push_finalizer 00000001800269e0     libmsgpack:unpack.obj
 0002:000099e0       $unwind$?process@?$output_processor@DV?$stream_output_adapter@D@__crt_stdio_output@@V?$standard_base@DV?$stream_output_adapter@D@__crt_stdio_output@@@2@@__crt_stdio_output@@QEAAHXZ 00000001800269e0     libucrt:output.obj
 0002:000099f0       $chain$0$msgpack_zone_push_finalizer 00000001800269f0     libmsgpack:unpack.obj
 0002:00009a04       $chain$2$msgpack_zone_push_finalizer 0000000180026a04     libmsgpack:unpack.obj
 0002:00009a18       $chain$3$msgpack_zone_push_finalizer 0000000180026a18     libmsgpack:unpack.obj
 0002:00009a28       $unwind$?template_execute@@YAHPEAUtemplate_context@@PEBD_KPEA_K@Z 0000000180026a28     libmsgpack:unpack.obj
 0002:00009a44       $unwind$msgpack_unpacker_init 0000000180026a44     libmsgpack:unpack.obj
 0002:00009a58       $unwind$msgpack_unpacker_expand_buffer 0000000180026a58     libmsgpack:unpack.obj
 0002:00009a6c       $unwind$msgpack_unpacker_next 0000000180026a6c     libmsgpack:unpack.obj
 0002:00009a84       $unwind$msgpack_unpack     0000000180026a84     libmsgpack:unpack.obj
 0002:00009a9c       $unwind$msgpack_unpack_next 0000000180026a9c     libmsgpack:unpack.obj
 0002:00009ab8       $unwind$fprintf            0000000180026ab8     libmsgpack:objectc.obj
 0002:00009ab8       $unwind$fwprintf           0000000180026ab8     libucrt:assert.obj
 0002:00009ac4       $unwind$msgpack_pack_int64 0000000180026ac4     libmsgpack:objectc.obj
 0002:00009ad4       $unwind$msgpack_pack_object 0000000180026ad4     libmsgpack:objectc.obj
 0002:00009af4       $unwind$msgpack_object_print 0000000180026af4     libmsgpack:objectc.obj
 0002:00009b04       $chain$0$msgpack_object_print 0000000180026b04     libmsgpack:objectc.obj
 0002:00009b18       $chain$1$msgpack_object_print 0000000180026b18     libmsgpack:objectc.obj
 0002:00009b28       $unwind$msgpack_object_equal 0000000180026b28     libmsgpack:objectc.obj
 0002:00009b40       xdata                      0000000180026b40     node:node.exe
 0002:00009b48       $unwind$?_Xlength_error@std@@YAXPEBD@Z 0000000180026b48     libcpmt:xthrow.obj
 0002:00009b48       $unwind$?__scrt_throw_std_bad_array_new_length@@YAXXZ 0000000180026b48     LIBCMT:throw_bad_alloc.obj
 0002:00009b48       $unwind$_raise_exc         0000000180026b48     libucrt:fpexcept.obj
 0002:00009b48       $unwind$?__scrt_throw_std_bad_alloc@@YAXXZ 0000000180026b48     LIBCMT:throw_bad_alloc.obj
 0002:00009b50       $xdatasym                  0000000180026b50     LIBCMT:amdsecgs.obj
 0002:00009b54       $unwind$__scrt_is_nonwritable_in_current_image 0000000180026b54     LIBCMT:utility.obj
 0002:00009b74       $unwind$__scrt_is_nonwritable_in_current_image$filt$0 0000000180026b74     LIBCMT:utility.obj
 0002:00009b7c       $unwind$__dcrt_lowio_ensure_console_output_initialized 0000000180026b7c     libucrt:initcon.obj
 0002:00009b7c       $unwind$?getSystemCP@@YAHH@Z 0000000180026b7c     libucrt:mbctype.obj
 0002:00009b7c       $unwind$_isleadbyte_l      0000000180026b7c     libucrt:_wctype.obj
 0002:00009b7c       $unwind$__scrt_initialize_onexit_tables 0000000180026b7c     LIBCMT:utility.obj
 0002:00009b84       $unwind$?dllmain_crt_process_attach@@YAHQEAUHINSTANCE__@@QEAX@Z 0000000180026b84     LIBCMT:dll_dllmain.obj
 0002:00009bc0       $unwind$__acrt_initialize_lowio$fin$0 0000000180026bc0     libucrt:ioinit.obj
 0002:00009bc0       $unwind$?fin$0@?0???$common_lseek@_J@@YA_JH_JH@Z@4HA 0000000180026bc0     libucrt:lseek.obj
 0002:00009bc0       $unwind$__acrt_update_thread_locale_data$fin$0 0000000180026bc0     libucrt:locale_refcounting.obj
 0002:00009bc0       $unwind$__acrt_lowio_ensure_fh_exists$fin$0 0000000180026bc0     libucrt:osfinfo.obj
 0002:00009bc0       $unwind$?fin$0@?0???$?RV<lambda_0ae27a3a962d80f24befdcbee591983d>@@AEAV<lambda_8d0ee55de4b1038c4002e0adecdf1839>@@V<lambda_dc504788e8f1664fe9b84e20bfb512f2>@@@?$__crt_seh_guarded_call@X@@QEAAX$$QEAV<lambda_0ae27a3a962d80f24befdcbee591983d>@@AEAV<lambda_8d0ee55de4b1038c4002e0adecdf1839>@@$$QEAV<lambda_dc504788e8f1664fe9b84e20bfb512f2>@@@Z@4HA 0000000180026bc0     libucrt:per_thread_data.obj
 0002:00009bc0       $unwind$?fin$0@?0???$?RV<lambda_842d9ff0dc9ef11c61343bbaebe7f885>@@AEAV<lambda_c5860995281e5c4ce005b3de8f5874ee>@@V<lambda_d90129c13df834fdcbf8d2b88dafcf2d>@@@?$__crt_seh_guarded_call@X@@QEAAX$$QEAV<lambda_842d9ff0dc9ef11c61343bbaebe7f885>@@AEAV<lambda_c5860995281e5c4ce005b3de8f5874ee>@@$$QEAV<lambda_d90129c13df834fdcbf8d2b88dafcf2d>@@@Z@4HA 0000000180026bc0     libucrt:fflush.obj
 0002:00009bc0       $unwind$?fin$0@?0???$?RV<lambda_efdfa57d1f175319df784efa44bb7b81>@@AEAV<lambda_5f0a4c1567f8adc6734073e5d1e1b35c>@@V<lambda_2e8a7d3640ea6ccb4c2413664c2db6fd>@@@?$__crt_seh_guarded_call@X@@QEAAX$$QEAV<lambda_efdfa57d1f175319df784efa44bb7b81>@@AEAV<lambda_5f0a4c1567f8adc6734073e5d1e1b35c>@@$$QEAV<lambda_2e8a7d3640ea6ccb4c2413664c2db6fd>@@@Z@4HA 0000000180026bc0     libucrt:mbctype.obj
 0002:00009bc0       $unwind$_ctrlfp$filt$0     0000000180026bc0     libucrt:fpctrl.obj
 0002:00009bc0       $unwind$?filt$0@?0??FrameUnwindToState@__FrameHandler3@@SAXPEA_KPEAU_xDISPATCHER_CONTEXT@@PEBU_s_FuncInfo@@H@Z@4HA 0000000180026bc0     libvcruntime:frame.obj
 0002:00009bc0       $unwind$?filt$0@?0???R<lambda_6e4b09c48022b2350581041d5f6b0c4c>@@QEBA@XZ@4HA 0000000180026bc0     libucrt:exit.obj
 0002:00009bc0       $unwind$_query_new_handler$fin$0 0000000180026bc0     libucrt:new_handler.obj
 0002:00009bc0       $unwind$?filt$0@?0??CxxCallCatchBlock@__FrameHandler3@@SAPEAXPEAU_EXCEPTION_RECORD@@@Z@4HA 0000000180026bc0     libvcruntime:frame.obj
 0002:00009bc0       $unwind$?fin$0@?0???$?RV<lambda_f2e299630e499de9f9a165e60fcd3db5>@@AEAV<lambda_2ae9d31cdba2644fcbeaf08da7c24588>@@V<lambda_40d01ff24d0e7b3814fdbdcee8eab3c7>@@@?$__crt_seh_guarded_call@X@@QEAAX$$QEAV<lambda_f2e299630e499de9f9a165e60fcd3db5>@@AEAV<lambda_2ae9d31cdba2644fcbeaf08da7c24588>@@$$QEAV<lambda_40d01ff24d0e7b3814fdbdcee8eab3c7>@@@Z@4HA 0000000180026bc0     libucrt:per_thread_data.obj
 0002:00009bc0       $unwind$?fin$0@?0???$?RV<lambda_d80eeec6fff315bfe5c115232f3240e3>@@AEAV<lambda_6e4b09c48022b2350581041d5f6b0c4c>@@V<lambda_2358e3775559c9db80273638284d5e45>@@@?$__crt_seh_guarded_call@X@@QEAAX$$QEAV<lambda_d80eeec6fff315bfe5c115232f3240e3>@@AEAV<lambda_6e4b09c48022b2350581041d5f6b0c4c>@@$$QEAV<lambda_2358e3775559c9db80273638284d5e45>@@@Z@4HA 0000000180026bc0     libucrt:exit.obj
 0002:00009bc0       $unwind$?fin$0@?0??update_thread_multibyte_data_internal@@YAPEAU__crt_multibyte_data@@QEAU__acrt_ptd@@QEAPEAU1@@Z@4HA 0000000180026bc0     libucrt:mbctype.obj
 0002:00009bc0       $unwind$_fcloseall$fin$0   0000000180026bc0     libucrt:closeall.obj
 0002:00009bc0       $unwind$?fin$0@?0???$?RV<lambda_2d41944a1d46af3157314b8a01080d33>@@AEAV<lambda_8f455de75cd7d7f24b4096f044d8b9e6>@@V<lambda_aa500f224e6afead328df44964fe2772>@@@?$__crt_seh_guarded_call@X@@QEAAX$$QEAV<lambda_2d41944a1d46af3157314b8a01080d33>@@AEAV<lambda_8f455de75cd7d7f24b4096f044d8b9e6>@@$$QEAV<lambda_aa500f224e6afead328df44964fe2772>@@@Z@4HA 0000000180026bc0     libucrt:per_thread_data.obj
 0002:00009bc0       $unwind$?fin$0@?0???$?RV<lambda_bdbcead8b570fa3d5ec6d9679862a6e5>@@AEAV<lambda_96f4279ff90247a4c5c5d9824f56f8c1>@@V<lambda_4606be27f17b5e5579e09050fab91818>@@@?$__crt_seh_guarded_call@_K@@QEAA_K$$QEAV<lambda_bdbcead8b570fa3d5ec6d9679862a6e5>@@AEAV<lambda_96f4279ff90247a4c5c5d9824f56f8c1>@@$$QEAV<lambda_4606be27f17b5e5579e09050fab91818>@@@Z@4HA 0000000180026bc0     libucrt:fwrite.obj
 0002:00009bc0       $unwind$_write$fin$0       0000000180026bc0     libucrt:write.obj
 0002:00009bc0       $unwind$?fin$0@?0???$?RV<lambda_886d6c58226a84441f68b9f2b8217b83>@@AEAV<lambda_ab61a845afdef5b7c387490eaf3616ee>@@V<lambda_f7f22ab5edc0698d5f6905b0d3f44752>@@@?$__crt_seh_guarded_call@X@@QEAAX$$QEAV<lambda_886d6c58226a84441f68b9f2b8217b83>@@AEAV<lambda_ab61a845afdef5b7c387490eaf3616ee>@@$$QEAV<lambda_f7f22ab5edc0698d5f6905b0d3f44752>@@@Z@4HA 0000000180026bc0     libucrt:fflush.obj
 0002:00009bc0       $unwind$fclose$fin$0       0000000180026bc0     libucrt:fclose.obj
 0002:00009bc0       $unwind$?fin$0@?0??dllmain_crt_process_attach@@YAHQEAUHINSTANCE__@@QEAX@Z@4HA 0000000180026bc0     LIBCMT:dll_dllmain.obj
 0002:00009bc0       $unwind$?fin$0@?0???$?RV<lambda_c376a267cfb53b6959b3b692ec76b120>@@AEAV<lambda_9a32fed5bf61b6b509b2d3f6003082a1>@@V<lambda_572fbb9fa0ab338edf41edfd4b5fcc8d>@@@?$__crt_seh_guarded_call@H@@QEAAH$$QEAV<lambda_c376a267cfb53b6959b3b692ec76b120>@@AEAV<lambda_9a32fed5bf61b6b509b2d3f6003082a1>@@$$QEAV<lambda_572fbb9fa0ab338edf41edfd4b5fcc8d>@@@Z@4HA 0000000180026bc0     libucrt:fflush.obj
 0002:00009bc0       $unwind$?fin$0@?0???$?RV<lambda_a37b2b86f63e897a80ea819b0eb08c01>@@AEAV<lambda_38ce7e780aa69e748d6df282ebc68efe>@@V<lambda_99fb1378e971ab6e7edea83e3a7a83a2>@@@?$__crt_seh_guarded_call@H@@QEAAH$$QEAV<lambda_a37b2b86f63e897a80ea819b0eb08c01>@@AEAV<lambda_38ce7e780aa69e748d6df282ebc68efe>@@$$QEAV<lambda_99fb1378e971ab6e7edea83e3a7a83a2>@@@Z@4HA 0000000180026bc0     libucrt:commit.obj
 0002:00009bc0       $unwind$_IsNonwritableInCurrentImage$filt$0 0000000180026bc0     LIBCMT:pesect.obj
 0002:00009bc0       $unwind$?fin$0@?0??dllmain_crt_process_detach@@YAH_N@Z@4HA 0000000180026bc0     LIBCMT:dll_dllmain.obj
 0002:00009bc0       $unwind$?fin$0@?0???$?RV<lambda_410d79af7f07d98d83a3f525b3859a53>@@AEAV<lambda_3e16ef9562a7dcce91392c22ab16ea36>@@V<lambda_38119f0e861e05405d8a144b9b982f0a>@@@?$__crt_seh_guarded_call@X@@QEAAX$$QEAV<lambda_410d79af7f07d98d83a3f525b3859a53>@@AEAV<lambda_3e16ef9562a7dcce91392c22ab16ea36>@@$$QEAV<lambda_38119f0e861e05405d8a144b9b982f0a>@@@Z@4HA 0000000180026bc0     libucrt:wsetlocale.obj
 0002:00009bc0       $unwind$?fin$0@?0???$?RV<lambda_638799b9deba96c50f710eeac98168cd>@@AEAV<lambda_22ebabd17bc4fa466a2aca6d8deb888d>@@V<lambda_a6f7d7db0129f75315ebf26d50c089f1>@@@?$__crt_seh_guarded_call@H@@QEAAH$$QEAV<lambda_638799b9deba96c50f710eeac98168cd>@@AEAV<lambda_22ebabd17bc4fa466a2aca6d8deb888d>@@$$QEAV<lambda_a6f7d7db0129f75315ebf26d50c089f1>@@@Z@4HA 0000000180026bc0     libucrt:onexit.obj
 0002:00009bc0       $unwind$?fin$0@?0???$?RV<lambda_751a882b2c74d4b022dec766aa51a29a>@@AEAV<lambda_628dfdc04ba53c8bfc02c9951375f3f5>@@V<lambda_f6c7be5f7998530c34de24c7437d6b54>@@@?$__crt_seh_guarded_call@H@@QEAAH$$QEAV<lambda_751a882b2c74d4b022dec766aa51a29a>@@AEAV<lambda_628dfdc04ba53c8bfc02c9951375f3f5>@@$$QEAV<lambda_f6c7be5f7998530c34de24c7437d6b54>@@@Z@4HA 0000000180026bc0     libucrt:close.obj
 0002:00009bc0       $unwind$?fin$0@?0???$?RV<lambda_7777bce6b2f8c936911f934f8298dc43>@@AEAV<lambda_f03950bc5685219e0bcd2087efbe011e>@@V<lambda_3883c3dff614d5e0c5f61bb1ac94921c>@@@?$__crt_seh_guarded_call@H@@QEAAH$$QEAV<lambda_7777bce6b2f8c936911f934f8298dc43>@@AEAV<lambda_f03950bc5685219e0bcd2087efbe011e>@@$$QEAV<lambda_3883c3dff614d5e0c5f61bb1ac94921c>@@@Z@4HA 0000000180026bc0     libucrt:onexit.obj
 0002:00009bc0       $unwind$?fin$0@?0???$?RV<lambda_84ec643ea9557e2f7dc01bb0e9624395>@@AEAV<lambda_ca71763b3c0644891230e4f79ea54fa6>@@V<lambda_439a761618c59b0600e24586724d733b>@@@?$__crt_seh_guarded_call@H@@QEAAH$$QEAV<lambda_84ec643ea9557e2f7dc01bb0e9624395>@@AEAV<lambda_ca71763b3c0644891230e4f79ea54fa6>@@$$QEAV<lambda_439a761618c59b0600e24586724d733b>@@@Z@4HA 0000000180026bc0     libucrt:setvbuf.obj
 0002:00009bc0       $unwind$?fin$1@?0??FrameUnwindToState@__FrameHandler3@@SAXPEA_KPEAU_xDISPATCHER_CONTEXT@@PEBU_s_FuncInfo@@H@Z@4HA 0000000180026bc0     libvcruntime:frame.obj
 0002:00009bc0       $unwind$?fin$0@?0???$?RV<lambda_a62c933ada0517137acf5807a1eeac1f>@@AEAV<lambda_a31071773b9a94e445cbd5d04ef99106>@@V<lambda_56065050dbf3ada7e59a83db45153de3>@@@?$__crt_seh_guarded_call@H@@QEAAH$$QEAV<lambda_a62c933ada0517137acf5807a1eeac1f>@@AEAV<lambda_a31071773b9a94e445cbd5d04ef99106>@@$$QEAV<lambda_56065050dbf3ada7e59a83db45153de3>@@@Z@4HA 0000000180026bc0     libucrt:output.obj
 0002:00009bc0       $unwind$?fin$0@?0???$?RV<lambda_aa87e3671a710a21b5dc78c0bdf72e11>@@AEAV<lambda_92619d2358a28f41a33ba319515a20b9>@@V<lambda_6992ecaafeb10aed2b74cb1fae11a551>@@@?$__crt_seh_guarded_call@X@@QEAAX$$QEAV<lambda_aa87e3671a710a21b5dc78c0bdf72e11>@@AEAV<lambda_92619d2358a28f41a33ba319515a20b9>@@$$QEAV<lambda_6992ecaafeb10aed2b74cb1fae11a551>@@@Z@4HA 0000000180026bc0     libucrt:per_thread_data.obj
 0002:00009bc0       $unwind$raise$fin$0        0000000180026bc0     libucrt:signal.obj
 0002:00009bc0       $unwind$?fin$0@?0???$?RV<lambda_0d412022a4b28cc8a401ea49574e8ae6>@@AEAV<lambda_a775ed57af18ba8e4d5dc780aa9068fe>@@V<lambda_975a71a6baa488a08f4e15f6b0339b9e>@@@?$__crt_seh_guarded_call@H@@QEAAH$$QEAV<lambda_0d412022a4b28cc8a401ea49574e8ae6>@@AEAV<lambda_a775ed57af18ba8e4d5dc780aa9068fe>@@$$QEAV<lambda_975a71a6baa488a08f4e15f6b0339b9e>@@@Z@4HA 0000000180026bc0     libucrt:output.obj
 0002:00009bc0       $unwind$__DestructExceptionObject$filt$0 0000000180026bc0     libvcruntime:ehhelpers.obj
 0002:00009bc0       $unwind$?fin$0@?0???$?RV<lambda_450d765d439847d4c735a33c368b5fc0>@@AEAV<lambda_44731a7d0e6d81c3e6aa82d741081786>@@V<lambda_601a2a7da3b7a96e9554ac7215c4b07c>@@@?$__crt_seh_guarded_call@P6AXH@Z@@QEAAP6AXH@Z$$QEAV<lambda_450d765d439847d4c735a33c368b5fc0>@@AEAV<lambda_44731a7d0e6d81c3e6aa82d741081786>@@$$QEAV<lambda_601a2a7da3b7a96e9554ac7215c4b07c>@@@Z@4HA 0000000180026bc0     libucrt:signal.obj
 0002:00009bc8       $unwind$?dllmain_crt_process_detach@@YAH_N@Z 0000000180026bc8     LIBCMT:dll_dllmain.obj
 0002:00009c00       $unwind$?dllmain_dispatch@@YAHQEAUHINSTANCE__@@KQEAX@Z 0000000180026c00     LIBCMT:dll_dllmain.obj
 0002:00009c28       $unwind$?filt$0@?0??dllmain_dispatch@@YAHQEAUHINSTANCE__@@KQEAX@Z@4HA 0000000180026c28     LIBCMT:dll_dllmain.obj
 0002:00009c30       $unwind$__report_securityfailure 0000000180026c30     LIBCMT:gs_report.obj
 0002:00009c38       $unwind$__report_gsfailure 0000000180026c38     LIBCMT:gs_report.obj
 0002:00009c40       $unwind$capture_current_context 0000000180026c40     LIBCMT:gs_report.obj
 0002:00009c4c       $unwind$capture_previous_context 0000000180026c4c     LIBCMT:gs_report.obj
 0002:00009c58       $unwind$__isa_available_init 0000000180026c58     LIBCMT:cpu_disp.obj
 0002:00009c6c       $unwind$__scrt_fastfail    0000000180026c6c     LIBCMT:utility_desktop.obj
 0002:00009c7c       $unwind$__security_init_cookie 0000000180026c7c     LIBCMT:gs_support.obj
 0002:00009c88       $xdatasym                  0000000180026c88     LIBCMT:guard_dispatch.obj
 0002:00009c8c       $unwind$?GetEstablisherFrame@__FrameHandler3@@SAPEA_KPEA_KPEAU_xDISPATCHER_CONTEXT@@PEBU_s_FuncInfo@@0@Z 0000000180026c8c     libvcruntime:risctrnsctrl.obj
 0002:00009ca4       $unwind$?UnwindNestedFrames@__FrameHandler3@@SAXPEA_KPEAUEHExceptionRecord@@PEAU_CONTEXT@@0PEAXPEBU_s_FuncInfo@@HHPEBU_s_HandlerType@@PEAU_xDISPATCHER_CONTEXT@@E@Z 0000000180026ca4     libvcruntime:risctrnsctrl.obj
 0002:00009cb8       $unwind$?GetRangeOfTrysToCheck@__FrameHandler3@@SA?AU?$pair@Viterator@TryBlockMap@__FrameHandler3@@V123@@std@@AEAVTryBlockMap@1@HH@Z 0000000180026cb8     libvcruntime:risctrnsctrl.obj
 0002:00009cd0       $unwind$__CxxFrameHandler3 0000000180026cd0     libvcruntime:risctrnsctrl.obj
 0002:00009ce0       $unwind$??$_CallSETranslator@V__FrameHandler3@@@@YAHPEAUEHExceptionRecord@@PEA_KPEAU_CONTEXT@@PEAU_xDISPATCHER_CONTEXT@@PEBU_s_FuncInfo@@K1@Z 0000000180026ce0     libvcruntime:risctrnsctrl.obj
 0002:00009d00       $unwind$?filt$0@?0???$_CallSETranslator@V__FrameHandler3@@@@YAHPEAUEHExceptionRecord@@PEA_KPEAU_CONTEXT@@PEAU_xDISPATCHER_CONTEXT@@PEBU_s_FuncInfo@@K1@Z@4HA 0000000180026d00     libvcruntime:risctrnsctrl.obj
 0002:00009d0c       $unwind$__DestructExceptionObject 0000000180026d0c     libvcruntime:ehhelpers.obj
 0002:00009d2c       $unwind$__std_exception_copy 0000000180026d2c     libvcruntime:std_exception.obj
 0002:00009d2c       $unwind$_free_osfhnd       0000000180026d2c     libucrt:osfinfo.obj
 0002:00009d40       $unwind$_CxxThrowException 0000000180026d40     libvcruntime:throw.obj
 0002:00009d50       $unwind$__C_specific_handler 0000000180026d50     libvcruntime:riscchandler.obj
 0002:00009d70       $xdatasym                  0000000180026d70     libvcruntime:memset.obj
 0002:00009d80       $unwind$?FrameUnwindToState@__FrameHandler3@@SAXPEA_KPEAU_xDISPATCHER_CONTEXT@@PEBU_s_FuncInfo@@H@Z 0000000180026d80     libvcruntime:frame.obj
 0002:00009dcc       $unwind$?CxxCallCatchBlock@__FrameHandler3@@SAPEAXPEAU_EXCEPTION_RECORD@@@Z 0000000180026dcc     libvcruntime:frame.obj
 0002:00009e08       $unwind$?fin$1@?0??CxxCallCatchBlock@__FrameHandler3@@SAPEAXPEAU_EXCEPTION_RECORD@@@Z@4HA 0000000180026e08     libvcruntime:frame.obj
 0002:00009e14       $unwind$?try_get_function@@YAPEAXW4function_id@?A0xbfd18cd1@@QEBDQEBW4module_id@2@2@Z 0000000180026e14     libvcruntime:winapi_downlevel.obj
 0002:00009e14       $unwind$?try_get_function@@YAPEAXW4function_id@?A0x391cf84c@@QEBDQEBW4module_id@2@2@Z 0000000180026e14     libucrt:winapi_thunks.obj
 0002:00009e14       $unwind$?IsInExceptionSpec@@YAEPEAUEHExceptionRecord@@PEBU_s_ESTypeList@@@Z 0000000180026e14     libvcruntime:frame.obj
 0002:00009e30       $unwind$??$__InternalCxxFrameHandler@V__FrameHandler3@@@@YA?AW4_EXCEPTION_DISPOSITION@@PEAUEHExceptionRecord@@PEA_KPEAU_CONTEXT@@PEAU_xDISPATCHER_CONTEXT@@PEBU_s_FuncInfo@@H1E@Z 0000000180026e30     libvcruntime:frame.obj
 0002:00009e48       $unwind$??$TypeMatchHelper@V__FrameHandler3@@@@YAHPEBU_s_HandlerType@@PEBU_s_CatchableType@@PEBU_s_ThrowInfo@@@Z 0000000180026e48     libvcruntime:frame.obj
 0002:00009e48       $unwind$?initialize_stdio_handles_nolock@@YAXXZ 0000000180026e48     libucrt:ioinit.obj
 0002:00009e48       $unwind$__acrt_initialize_stdio 0000000180026e48     libucrt:_file.obj
 0002:00009e48       $unwind$__GSHandlerCheck_EH 0000000180026e48     LIBCMT:gshandlereh.obj
 0002:00009e60       $unwind$??$BuildCatchObjectHelperInternal@V__FrameHandler3@@@@YAHPEAUEHExceptionRecord@@PEAXPEBU_s_HandlerType@@PEBU_s_CatchableType@@@Z 0000000180026e60     libvcruntime:frame.obj
 0002:00009ea0       $unwind$??$BuildCatchObjectInternal@V__FrameHandler3@@@@YAXPEAUEHExceptionRecord@@PEAXPEBU_s_HandlerType@@PEBU_s_CatchableType@@@Z 0000000180026ea0     libvcruntime:frame.obj
 0002:00009ecc       $unwind$??$FindHandler@V__FrameHandler3@@@@YAXPEAUEHExceptionRecord@@PEA_KPEAU_CONTEXT@@PEAU_xDISPATCHER_CONTEXT@@PEBU_s_FuncInfo@@EH1@Z 0000000180026ecc     libvcruntime:frame.obj
 0002:00009ee8       $unwind$??$CatchIt@V__FrameHandler3@@@@YAXPEAUEHExceptionRecord@@PEA_KPEAU_CONTEXT@@PEAU_xDISPATCHER_CONTEXT@@PEBU_s_FuncInfo@@PEBU_s_HandlerType@@PEBU_s_CatchableType@@PEBU_s_TryBlockMapEntry@@H1EE@Z 0000000180026ee8     libvcruntime:frame.obj
 0002:00009f00       $unwind$??$FindHandlerForForeignException@V__FrameHandler3@@@@YAXPEAUEHExceptionRecord@@PEA_KPEAU_CONTEXT@@PEAU_xDISPATCHER_CONTEXT@@PEBU_s_FuncInfo@@HH1@Z 0000000180026f00     libvcruntime:frame.obj
 0002:00009f1c       $unwind$__vcrt_initialize_winapi_thunks 0000000180026f1c     libvcruntime:winapi_downlevel.obj
 0002:00009f1c       $unwind$__acrt_initialize_winapi_thunks 0000000180026f1c     libucrt:winapi_thunks.obj
 0002:00009f24       $unwind$__acrt_stdio_end_temporary_buffering_nolock 0000000180026f24     libucrt:_sftbuf.obj
 0002:00009f24       $unwind$__vcrt_uninitialize_winapi_thunks 0000000180026f24     libvcruntime:winapi_downlevel.obj
 0002:00009f30       $xdatasym                  0000000180026f30     libvcruntime:notify.obj
 0002:00009f40       $xdatasym                  0000000180026f40     libvcruntime:handlers.obj
 0002:00009f50       $xdatasym                  0000000180026f50     libvcruntime:memcpy.obj
 0002:00009f60       $unwind$swprintf           0000000180026f60     libucrt:assert.obj
 0002:00009f70       $unwind$??$common_assert_to_stderr@_W@@YAXQEB_W0I@Z 0000000180026f70     libucrt:assert.obj
 0002:00009f8c       $unwind$??$common_assert_to_message_box@_W@@YAXQEB_W0IQEAX@Z 0000000180026f8c     libucrt:assert.obj
 0002:00009fa8       $unwind$??$common_assert_to_message_box_build_string@_W@@YAXQEA_W_KQEB_W2IQEAX@Z 0000000180026fa8     libucrt:assert.obj
 0002:00009fc8       $unwind$_itow_s            0000000180026fc8     libucrt:xtoa.obj
 0002:00009fc8       $unwind$_invalid_parameter_noinfo_noreturn 0000000180026fc8     libucrt:invalid_parameter.obj
 0002:00009fc8       $unwind$_invalid_parameter_noinfo 0000000180026fc8     libucrt:invalid_parameter.obj
 0002:00009fc8       $unwind$wctomb_s           0000000180026fc8     libucrt:wctomb.obj
 0002:00009fc8       $unwind$wcstol             0000000180026fc8     libucrt:strtox.obj
 0002:00009fc8       $unwind$fflush             0000000180026fc8     libucrt:fflush.obj
 0002:00009fc8       $unwind$_log10_special     0000000180026fc8     libucrt:log_special.obj
 0002:00009fc8       $unwind$strtol             0000000180026fc8     libucrt:strtox.obj
 0002:00009fd0       $unwind$__acrt_call_reportfault 0000000180026fd0     libucrt:invalid_parameter.obj
 0002:00009ff0       $unwind$_invalid_parameter 0000000180026ff0     libucrt:invalid_parameter.obj
 0002:00009ff0       $unwind$__acrt_MessageBoxW 0000000180026ff0     libucrt:winapi_thunks.obj
 0002:0000a004       $unwind$_stricmp_l         0000000180027004     libucrt:stricmp.obj
 0002:0000a004       $unwind$?x_ismbbtype_l@@YAHPEAU__crt_locale_pointers@@IHH@Z 0000000180027004     libucrt:ismbbyte.obj
 0002:0000a014       $unwind$__stdio_common_vfprintf 0000000180027014     libucrt:output.obj
 0002:0000a014       $unwind$__stdio_common_vfwprintf 0000000180027014     libucrt:output.obj
 0002:0000a01c       $unwind$??$common_vsprintf@Vstandard_base@__crt_stdio_output@@_W@@YAH_KQEA_W0QEB_WQEAU__crt_locale_pointers@@QEAD@Z 000000018002701c     libucrt:output.obj
 0002:0000a03c       $unwind$?write_string_impl@?$output_adapter_common@DV?$stream_output_adapter@D@__crt_stdio_output@@@__crt_stdio_output@@IEBAXQEBDHQEAHAEAV__crt_deferred_errno_cache@@@Z 000000018002703c     libucrt:output.obj
 0002:0000a03c       $unwind$??$parse_command_line@D@@YAXPEADPEAPEAD0PEA_K2@Z 000000018002703c     libucrt:argv_parsing.obj
 0002:0000a03c       $unwind$?write_string_impl@?$output_adapter_common@_WV?$stream_output_adapter@_W@__crt_stdio_output@@@__crt_stdio_output@@IEBAXQEB_WHQEAHAEAV__crt_deferred_errno_cache@@@Z 000000018002703c     libucrt:output.obj
 0002:0000a058       $unwind$?process@?$output_processor@_WV?$stream_output_adapter@_W@__crt_stdio_output@@V?$standard_base@_WV?$stream_output_adapter@_W@__crt_stdio_output@@@2@@__crt_stdio_output@@QEAAHXZ 0000000180027058     libucrt:output.obj
 0002:0000a058       $unwind$?parse_int_from_format_string@?$output_processor@DV?$stream_output_adapter@D@__crt_stdio_output@@V?$standard_base@DV?$stream_output_adapter@D@__crt_stdio_output@@@2@@__crt_stdio_output@@AEAA_NQEAH@Z 0000000180027058     libucrt:output.obj
 0002:0000a058       $unwind$?process@?$output_processor@_WV?$string_output_adapter@_W@__crt_stdio_output@@V?$standard_base@_WV?$string_output_adapter@_W@__crt_stdio_output@@@2@@__crt_stdio_output@@QEAAHXZ 0000000180027058     libucrt:output.obj
 0002:0000a06c       $unwind$?state_case_type@?$output_processor@DV?$stream_output_adapter@D@__crt_stdio_output@@V?$standard_base@DV?$stream_output_adapter@D@__crt_stdio_output@@@2@@__crt_stdio_output@@AEAA_NXZ 000000018002706c     libucrt:output.obj
 0002:0000a084       $unwind$?type_case_a@?$output_processor@DV?$stream_output_adapter@D@__crt_stdio_output@@V?$standard_base@DV?$stream_output_adapter@D@__crt_stdio_output@@@2@@__crt_stdio_output@@AEAA_NXZ 0000000180027084     libucrt:output.obj
 0002:0000a090       $unwind$??$common_xtox@K_W@@YAHKQEA_W_KI_N@Z 0000000180027090     libucrt:xtoa.obj
 0002:0000a090       $unwind$??R<lambda_f03950bc5685219e0bcd2087efbe011e>@@QEBAHXZ 0000000180027090     libucrt:onexit.obj
 0002:0000a090       $unwind$?type_case_integer@?$output_processor@DV?$stream_output_adapter@D@__crt_stdio_output@@V?$standard_base@DV?$stream_output_adapter@D@__crt_stdio_output@@@2@@__crt_stdio_output@@AEAA_NI_N@Z 0000000180027090     libucrt:output.obj
 0002:0000a090       $unwind$?type_case_integer@?$output_processor@_WV?$string_output_adapter@_W@__crt_stdio_output@@V?$standard_base@_WV?$string_output_adapter@_W@__crt_stdio_output@@@2@@__crt_stdio_output@@AEAA_NI_N@Z 0000000180027090     libucrt:output.obj
 0002:0000a090       $unwind$?type_case_integer@?$output_processor@_WV?$stream_output_adapter@_W@__crt_stdio_output@@V?$standard_base@_WV?$stream_output_adapter@_W@__crt_stdio_output@@@2@@__crt_stdio_output@@AEAA_NI_N@Z 0000000180027090     libucrt:output.obj
 0002:0000a0a8       $unwind$?write_stored_string_tchar@?$output_processor@DV?$stream_output_adapter@D@__crt_stdio_output@@V?$standard_base@DV?$stream_output_adapter@D@__crt_stdio_output@@@2@@__crt_stdio_output@@AEAA_ND@Z 00000001800270a8     libucrt:output.obj
 0002:0000a0c0       $unwind$??R<lambda_a775ed57af18ba8e4d5dc780aa9068fe>@@QEBAHXZ 00000001800270c0     libucrt:output.obj
 0002:0000a0c0       $unwind$??R<lambda_a31071773b9a94e445cbd5d04ef99106>@@QEBAHXZ 00000001800270c0     libucrt:output.obj
 0002:0000a0e0       $unwind$?parse_int_from_format_string@?$output_processor@_WV?$stream_output_adapter@_W@__crt_stdio_output@@V?$standard_base@_WV?$stream_output_adapter@_W@__crt_stdio_output@@@2@@__crt_stdio_output@@AEAA_NQEAH@Z 00000001800270e0     libucrt:output.obj
 0002:0000a0e0       $unwind$?parse_int_from_format_string@?$output_processor@_WV?$string_output_adapter@_W@__crt_stdio_output@@V?$standard_base@_WV?$string_output_adapter@_W@__crt_stdio_output@@@2@@__crt_stdio_output@@AEAA_NQEAH@Z 00000001800270e0     libucrt:output.obj
 0002:0000a0f4       $unwind$?state_case_type@?$output_processor@_WV?$stream_output_adapter@_W@__crt_stdio_output@@V?$standard_base@_WV?$stream_output_adapter@_W@__crt_stdio_output@@@2@@__crt_stdio_output@@AEAA_NXZ 00000001800270f4     libucrt:output.obj
 0002:0000a114       $unwind$?type_case_c_tchar@?$output_processor@_WV?$stream_output_adapter@_W@__crt_stdio_output@@V?$standard_base@_WV?$stream_output_adapter@_W@__crt_stdio_output@@@2@@__crt_stdio_output@@AEAA_N_W@Z 0000000180027114     libucrt:output.obj
 0002:0000a114       $unwind$?type_case_c_tchar@?$output_processor@_WV?$string_output_adapter@_W@__crt_stdio_output@@V?$standard_base@_WV?$string_output_adapter@_W@__crt_stdio_output@@@2@@__crt_stdio_output@@AEAA_N_W@Z 0000000180027114     libucrt:output.obj
 0002:0000a124       $unwind$?type_case_a@?$output_processor@_WV?$string_output_adapter@_W@__crt_stdio_output@@V?$standard_base@_WV?$string_output_adapter@_W@__crt_stdio_output@@@2@@__crt_stdio_output@@AEAA_NXZ 0000000180027124     libucrt:output.obj
 0002:0000a124       $unwind$?type_case_a@?$output_processor@_WV?$stream_output_adapter@_W@__crt_stdio_output@@V?$standard_base@_WV?$stream_output_adapter@_W@__crt_stdio_output@@@2@@__crt_stdio_output@@AEAA_NXZ 0000000180027124     libucrt:output.obj
 0002:0000a134       $unwind$?write_stored_string_tchar@?$output_processor@_WV?$stream_output_adapter@_W@__crt_stdio_output@@V?$standard_base@_WV?$stream_output_adapter@_W@__crt_stdio_output@@@2@@__crt_stdio_output@@AEAA_N_W@Z 0000000180027134     libucrt:output.obj
 0002:0000a148       $unwind$?write_string@?$string_output_adapter@_W@__crt_stdio_output@@QEBAXQEB_WHQEAHAEAV__crt_deferred_errno_cache@@@Z 0000000180027148     libucrt:output.obj
 0002:0000a160       $unwind$?state_case_type@?$output_processor@_WV?$string_output_adapter@_W@__crt_stdio_output@@V?$standard_base@_WV?$string_output_adapter@_W@__crt_stdio_output@@@2@@__crt_stdio_output@@AEAA_NXZ 0000000180027160     libucrt:output.obj
 0002:0000a184       $unwind$?write_stored_string_tchar@?$output_processor@_WV?$string_output_adapter@_W@__crt_stdio_output@@V?$standard_base@_WV?$string_output_adapter@_W@__crt_stdio_output@@@2@@__crt_stdio_output@@AEAA_N_W@Z 0000000180027184     libucrt:output.obj
 0002:0000a198       $unwind$??$write_multiple_characters@V?$string_output_adapter@_W@__crt_stdio_output@@D@__crt_stdio_output@@YAXAEBV?$string_output_adapter@_W@0@DHQEAH@Z 0000000180027198     libucrt:output.obj
 0002:0000a1a4       $unwind$??$write_multiple_characters@V?$stream_output_adapter@_W@__crt_stdio_output@@D@__crt_stdio_output@@YAXAEBV?$stream_output_adapter@_W@0@DHQEAH@Z 00000001800271a4     libucrt:output.obj
 0002:0000a1a4       $unwind$??$write_multiple_characters@V?$stream_output_adapter@D@__crt_stdio_output@@D@__crt_stdio_output@@YAXAEBV?$stream_output_adapter@D@0@DHQEAH@Z 00000001800271a4     libucrt:output.obj
 0002:0000a1bc       $unwind$??$type_case_integer_parse_into_buffer@_K@?$output_processor@DV?$stream_output_adapter@D@__crt_stdio_output@@V?$standard_base@DV?$stream_output_adapter@D@__crt_stdio_output@@@2@@__crt_stdio_output@@AEAAX_KI_N@Z 00000001800271bc     libucrt:output.obj
 0002:0000a1bc       $unwind$??$type_case_integer_parse_into_buffer@_K@?$output_processor@_WV?$string_output_adapter@_W@__crt_stdio_output@@V?$standard_base@_WV?$string_output_adapter@_W@__crt_stdio_output@@@2@@__crt_stdio_output@@AEAAX_KI_N@Z 00000001800271bc     libucrt:output.obj
 0002:0000a1bc       $unwind$??$type_case_integer_parse_into_buffer@I@?$output_processor@_WV?$string_output_adapter@_W@__crt_stdio_output@@V?$standard_base@_WV?$string_output_adapter@_W@__crt_stdio_output@@@2@@__crt_stdio_output@@AEAAXII_N@Z 00000001800271bc     libucrt:output.obj
 0002:0000a1bc       $unwind$??$type_case_integer_parse_into_buffer@_K@?$output_processor@_WV?$stream_output_adapter@_W@__crt_stdio_output@@V?$standard_base@_WV?$stream_output_adapter@_W@__crt_stdio_output@@@2@@__crt_stdio_output@@AEAAX_KI_N@Z 00000001800271bc     libucrt:output.obj
 0002:0000a1bc       $unwind$??$type_case_integer_parse_into_buffer@I@?$output_processor@_WV?$stream_output_adapter@_W@__crt_stdio_output@@V?$standard_base@_WV?$stream_output_adapter@_W@__crt_stdio_output@@@2@@__crt_stdio_output@@AEAAXII_N@Z 00000001800271bc     libucrt:output.obj
 0002:0000a1bc       $unwind$??$type_case_integer_parse_into_buffer@I@?$output_processor@DV?$stream_output_adapter@D@__crt_stdio_output@@V?$standard_base@DV?$stream_output_adapter@D@__crt_stdio_output@@@2@@__crt_stdio_output@@AEAAXII_N@Z 00000001800271bc     libucrt:output.obj
 0002:0000a1c4       $unwind$??$?RV<lambda_a62c933ada0517137acf5807a1eeac1f>@@AEAV<lambda_a31071773b9a94e445cbd5d04ef99106>@@V<lambda_56065050dbf3ada7e59a83db45153de3>@@@?$__crt_seh_guarded_call@H@@QEAAH$$QEAV<lambda_a62c933ada0517137acf5807a1eeac1f>@@AEAV<lambda_a31071773b9a94e445cbd5d04ef99106>@@$$QEAV<lambda_56065050dbf3ada7e59a83db45153de3>@@@Z 00000001800271c4     libucrt:output.obj
 0002:0000a1e8       $unwind$??$?RV<lambda_0d412022a4b28cc8a401ea49574e8ae6>@@AEAV<lambda_a775ed57af18ba8e4d5dc780aa9068fe>@@V<lambda_975a71a6baa488a08f4e15f6b0339b9e>@@@?$__crt_seh_guarded_call@H@@QEAAH$$QEAV<lambda_0d412022a4b28cc8a401ea49574e8ae6>@@AEAV<lambda_a775ed57af18ba8e4d5dc780aa9068fe>@@$$QEAV<lambda_975a71a6baa488a08f4e15f6b0339b9e>@@@Z 00000001800271e8     libucrt:output.obj
 0002:0000a20c       $unwind$fwrite             000000018002720c     libucrt:fwrite.obj
 0002:0000a214       $unwind$_fwrite_nolock     0000000180027214     libucrt:fwrite.obj
 0002:0000a230       $unwind$??$?RV<lambda_bdbcead8b570fa3d5ec6d9679862a6e5>@@AEAV<lambda_96f4279ff90247a4c5c5d9824f56f8c1>@@V<lambda_4606be27f17b5e5579e09050fab91818>@@@?$__crt_seh_guarded_call@_K@@QEAA_K$$QEAV<lambda_bdbcead8b570fa3d5ec6d9679862a6e5>@@AEAV<lambda_96f4279ff90247a4c5c5d9824f56f8c1>@@$$QEAV<lambda_4606be27f17b5e5579e09050fab91818>@@@Z 0000000180027230     libucrt:fwrite.obj
 0002:0000a254       $unwind$_query_new_handler 0000000180027254     libucrt:new_handler.obj
 0002:0000a274       $unwind$?common_exit@@YAXHW4_crt_exit_cleanup_mode@@W4_crt_exit_return_mode@@@Z 0000000180027274     libucrt:exit.obj
 0002:0000a280       $unwind$??R<lambda_6e4b09c48022b2350581041d5f6b0c4c>@@QEBA@XZ 0000000180027280     libucrt:exit.obj
 0002:0000a2a0       $unwind$??$?RV<lambda_d80eeec6fff315bfe5c115232f3240e3>@@AEAV<lambda_6e4b09c48022b2350581041d5f6b0c4c>@@V<lambda_2358e3775559c9db80273638284d5e45>@@@?$__crt_seh_guarded_call@X@@QEAAX$$QEAV<lambda_d80eeec6fff315bfe5c115232f3240e3>@@AEAV<lambda_6e4b09c48022b2350581041d5f6b0c4c>@@$$QEAV<lambda_2358e3775559c9db80273638284d5e45>@@@Z 00000001800272a0     libucrt:exit.obj
 0002:0000a2c4       $unwind$_configure_narrow_argv 00000001800272c4     libucrt:argv_parsing.obj
 0002:0000a2d8       $unwind$??$free_environment@D@@YAXQEAPEAD@Z 00000001800272d8     libucrt:environment_initialization.obj
 0002:0000a2d8       $unwind$??$free_environment@_W@@YAXQEAPEA_W@Z 00000001800272d8     libucrt:environment_initialization.obj
 0002:0000a2e4       $unwind$??$create_environment@D@@YAQEAPEADQEAD@Z 00000001800272e4     libucrt:environment_initialization.obj
 0002:0000a2fc       $unwind$_register_onexit_function 00000001800272fc     libucrt:onexit.obj
 0002:0000a304       $unwind$_execute_onexit_table 0000000180027304     libucrt:onexit.obj
 0002:0000a30c       $unwind$??R<lambda_22ebabd17bc4fa466a2aca6d8deb888d>@@QEBAHXZ 000000018002730c     libucrt:onexit.obj
 0002:0000a324       $unwind$??$?RV<lambda_638799b9deba96c50f710eeac98168cd>@@AEAV<lambda_22ebabd17bc4fa466a2aca6d8deb888d>@@V<lambda_a6f7d7db0129f75315ebf26d50c089f1>@@@?$__crt_seh_guarded_call@H@@QEAAH$$QEAV<lambda_638799b9deba96c50f710eeac98168cd>@@AEAV<lambda_22ebabd17bc4fa466a2aca6d8deb888d>@@$$QEAV<lambda_a6f7d7db0129f75315ebf26d50c089f1>@@@Z 0000000180027324     libucrt:onexit.obj
 0002:0000a348       $unwind$??$?RV<lambda_7777bce6b2f8c936911f934f8298dc43>@@AEAV<lambda_f03950bc5685219e0bcd2087efbe011e>@@V<lambda_3883c3dff614d5e0c5f61bb1ac94921c>@@@?$__crt_seh_guarded_call@H@@QEAAH$$QEAV<lambda_7777bce6b2f8c936911f934f8298dc43>@@AEAV<lambda_f03950bc5685219e0bcd2087efbe011e>@@$$QEAV<lambda_3883c3dff614d5e0c5f61bb1ac94921c>@@@Z 0000000180027348     libucrt:onexit.obj
 0002:0000a36c       $unwind$terminate          000000018002736c     libucrt:terminate.obj
 0002:0000a38c       $unwind$??$parse_integer@KV?$c_string_character_source@D@__crt_strtox@@@__crt_strtox@@YAKQEAU__crt_locale_pointers@@V?$c_string_character_source@D@0@H_N@Z 000000018002738c     libucrt:atox.obj
 0002:0000a3a8       $unwind$??$parse_integer@KV?$c_string_character_source@_W@__crt_strtox@@@__crt_strtox@@YAKQEAU__crt_locale_pointers@@V?$c_string_character_source@_W@0@H_N@Z 00000001800273a8     libucrt:atox.obj
 0002:0000a3c0       $xdatasym                  00000001800273c0     libucrt:strncmp.obj
 0002:0000a3c4       $unwind$__acrt_GetModuleFileNameA 00000001800273c4     libucrt:getmodulefilenamea.obj
 0002:0000a3e0       $unwind$??$__acrt_wcs_to_mbs_cp@U__crt_win32_buffer_no_resizing@@@@YAHQEB_WAEAV?$__crt_win32_buffer@DU__crt_win32_buffer_no_resizing@@@@I@Z 00000001800273e0     libucrt:getmodulefilenamea.obj
 0002:0000a3e0       $unwind$__dcrt_write_console 00000001800273e0     libucrt:initcon.obj
 0002:0000a3f4       $unwind$?common_flush_all@@YAH_N@Z 00000001800273f4     libucrt:fflush.obj
 0002:0000a3fc       $unwind$??$?RV<lambda_842d9ff0dc9ef11c61343bbaebe7f885>@@AEAV<lambda_c5860995281e5c4ce005b3de8f5874ee>@@V<lambda_d90129c13df834fdcbf8d2b88dafcf2d>@@@?$__crt_seh_guarded_call@X@@QEAAX$$QEAV<lambda_842d9ff0dc9ef11c61343bbaebe7f885>@@AEAV<lambda_c5860995281e5c4ce005b3de8f5874ee>@@$$QEAV<lambda_d90129c13df834fdcbf8d2b88dafcf2d>@@@Z 00000001800273fc     libucrt:fflush.obj
 0002:0000a420       $unwind$??$?RV<lambda_886d6c58226a84441f68b9f2b8217b83>@@AEAV<lambda_ab61a845afdef5b7c387490eaf3616ee>@@V<lambda_f7f22ab5edc0698d5f6905b0d3f44752>@@@?$__crt_seh_guarded_call@X@@QEAAX$$QEAV<lambda_886d6c58226a84441f68b9f2b8217b83>@@AEAV<lambda_ab61a845afdef5b7c387490eaf3616ee>@@$$QEAV<lambda_f7f22ab5edc0698d5f6905b0d3f44752>@@@Z 0000000180027420     libucrt:fflush.obj
 0002:0000a448       $unwind$??$?RV<lambda_c376a267cfb53b6959b3b692ec76b120>@@AEAV<lambda_9a32fed5bf61b6b509b2d3f6003082a1>@@V<lambda_572fbb9fa0ab338edf41edfd4b5fcc8d>@@@?$__crt_seh_guarded_call@H@@QEAAH$$QEAV<lambda_c376a267cfb53b6959b3b692ec76b120>@@AEAV<lambda_9a32fed5bf61b6b509b2d3f6003082a1>@@$$QEAV<lambda_572fbb9fa0ab338edf41edfd4b5fcc8d>@@@Z 0000000180027448     libucrt:fflush.obj
 0002:0000a46c       $unwind$setvbuf            000000018002746c     libucrt:setvbuf.obj
 0002:0000a474       $unwind$??$?RV<lambda_84ec643ea9557e2f7dc01bb0e9624395>@@AEAV<lambda_ca71763b3c0644891230e4f79ea54fa6>@@V<lambda_439a761618c59b0600e24586724d733b>@@@?$__crt_seh_guarded_call@H@@QEAAH$$QEAV<lambda_84ec643ea9557e2f7dc01bb0e9624395>@@AEAV<lambda_ca71763b3c0644891230e4f79ea54fa6>@@$$QEAV<lambda_439a761618c59b0600e24586724d733b>@@@Z 0000000180027474     libucrt:setvbuf.obj
 0002:0000a498       $unwind$__acrt_uninitialize_locale 0000000180027498     libucrt:wsetlocale.obj
 0002:0000a498       $unwind$__acrt_get_sigabrt_handler 0000000180027498     libucrt:signal.obj
 0002:0000a4a0       $unwind$raise              00000001800274a0     libucrt:signal.obj
 0002:0000a4dc       $unwind$??$?RV<lambda_450d765d439847d4c735a33c368b5fc0>@@AEAV<lambda_44731a7d0e6d81c3e6aa82d741081786>@@V<lambda_601a2a7da3b7a96e9554ac7215c4b07c>@@@?$__crt_seh_guarded_call@P6AXH@Z@@QEAAP6AXH@Z$$QEAV<lambda_450d765d439847d4c735a33c368b5fc0>@@AEAV<lambda_44731a7d0e6d81c3e6aa82d741081786>@@$$QEAV<lambda_601a2a7da3b7a96e9554ac7215c4b07c>@@@Z 00000001800274dc     libucrt:signal.obj
 0002:0000a500       $unwind$?construct_ptd_array@@YAXQEAU__acrt_ptd@@@Z 0000000180027500     libucrt:per_thread_data.obj
 0002:0000a508       $unwind$?destroy_ptd_array@@YAXQEAU__acrt_ptd@@@Z 0000000180027508     libucrt:per_thread_data.obj
 0002:0000a510       $unwind$??$?RV<lambda_0ae27a3a962d80f24befdcbee591983d>@@AEAV<lambda_8d0ee55de4b1038c4002e0adecdf1839>@@V<lambda_dc504788e8f1664fe9b84e20bfb512f2>@@@?$__crt_seh_guarded_call@X@@QEAAX$$QEAV<lambda_0ae27a3a962d80f24befdcbee591983d>@@AEAV<lambda_8d0ee55de4b1038c4002e0adecdf1839>@@$$QEAV<lambda_dc504788e8f1664fe9b84e20bfb512f2>@@@Z 0000000180027510     libucrt:per_thread_data.obj
 0002:0000a534       $unwind$??$?RV<lambda_aa87e3671a710a21b5dc78c0bdf72e11>@@AEAV<lambda_92619d2358a28f41a33ba319515a20b9>@@V<lambda_6992ecaafeb10aed2b74cb1fae11a551>@@@?$__crt_seh_guarded_call@X@@QEAAX$$QEAV<lambda_aa87e3671a710a21b5dc78c0bdf72e11>@@AEAV<lambda_92619d2358a28f41a33ba319515a20b9>@@$$QEAV<lambda_6992ecaafeb10aed2b74cb1fae11a551>@@@Z 0000000180027534     libucrt:per_thread_data.obj
 0002:0000a558       $unwind$??$?RV<lambda_f2e299630e499de9f9a165e60fcd3db5>@@AEAV<lambda_2ae9d31cdba2644fcbeaf08da7c24588>@@V<lambda_40d01ff24d0e7b3814fdbdcee8eab3c7>@@@?$__crt_seh_guarded_call@X@@QEAAX$$QEAV<lambda_f2e299630e499de9f9a165e60fcd3db5>@@AEAV<lambda_2ae9d31cdba2644fcbeaf08da7c24588>@@$$QEAV<lambda_40d01ff24d0e7b3814fdbdcee8eab3c7>@@@Z 0000000180027558     libucrt:per_thread_data.obj
 0002:0000a57c       $unwind$??$?RV<lambda_2d41944a1d46af3157314b8a01080d33>@@AEAV<lambda_8f455de75cd7d7f24b4096f044d8b9e6>@@V<lambda_aa500f224e6afead328df44964fe2772>@@@?$__crt_seh_guarded_call@X@@QEAAX$$QEAV<lambda_2d41944a1d46af3157314b8a01080d33>@@AEAV<lambda_8f455de75cd7d7f24b4096f044d8b9e6>@@$$QEAV<lambda_aa500f224e6afead328df44964fe2772>@@@Z 000000018002757c     libucrt:per_thread_data.obj
 0002:0000a5a0       $unwind$_tolower_l         00000001800275a0     libucrt:tolower_toupper.obj
 0002:0000a5b0       $unwind$??$?RV<lambda_410d79af7f07d98d83a3f525b3859a53>@@AEAV<lambda_3e16ef9562a7dcce91392c22ab16ea36>@@V<lambda_38119f0e861e05405d8a144b9b982f0a>@@@?$__crt_seh_guarded_call@X@@QEAAX$$QEAV<lambda_410d79af7f07d98d83a3f525b3859a53>@@AEAV<lambda_3e16ef9562a7dcce91392c22ab16ea36>@@$$QEAV<lambda_38119f0e861e05405d8a144b9b982f0a>@@@Z 00000001800275b0     libucrt:wsetlocale.obj
 0002:0000a5d8       $unwind$isdigit            00000001800275d8     libucrt:_ctype.obj
 0002:0000a5d8       $unwind$_mbsdec_l          00000001800275d8     libucrt:mbsdec.obj
 0002:0000a5e4       $unwind$?fp_format_e@@YAHQEBNQEAD_K12H_NIQEAU__crt_locale_pointers@@@Z 00000001800275e4     libucrt:cvt.obj
 0002:0000a5e4       $unwind$_mbtowc_l          00000001800275e4     libucrt:mbtowc.obj
 0002:0000a5e4       $unwind$__acrt_LCMapStringEx 00000001800275e4     libucrt:winapi_thunks.obj
 0002:0000a5f8       $unwind$_wctomb_s_l        00000001800275f8     libucrt:wctomb.obj
 0002:0000a608       $unwind$__acrt_fp_format   0000000180027608     libucrt:cvt.obj
 0002:0000a61c       $unwind$?fp_format_nan_or_infinity@@YAHW4__acrt_fp_class@@_NPEAD_K1@Z 000000018002761c     libucrt:cvt.obj
 0002:0000a630       $unwind$?fp_format_e_internal@@YAHQEAD_KH_NIQEAU_strflt@@2QEAU__crt_locale_pointers@@@Z 0000000180027630     libucrt:cvt.obj
 0002:0000a648       $unwind$?fp_format_a@@YAHQEBNPEAD_KQEAD2H_NIQEAU__crt_locale_pointers@@@Z 0000000180027648     libucrt:cvt.obj
 0002:0000a664       $unwind$__dcrt_get_narrow_environment_from_os 0000000180027664     libucrt:get_environment_from_os.obj
 0002:0000a664       $unwind$??$__acrt_wcs_to_mbs_cp@U__crt_win32_buffer_internal_dynamic_resizing@@@@YAHQEB_WAEAV?$__crt_win32_buffer@DU__crt_win32_buffer_internal_dynamic_resizing@@@@I@Z 0000000180027664     libucrt:argv_wildcards.obj
 0002:0000a664       $unwind$?fp_format_f_internal@@YAHQEAD_KHQEAU_strflt@@_NQEAU__crt_locale_pointers@@@Z 0000000180027664     libucrt:cvt.obj
 0002:0000a67c       $unwind$?fp_format_g@@YAHQEBNQEAD_K12H_NIQEAU__crt_locale_pointers@@@Z 000000018002767c     libucrt:cvt.obj
 0002:0000a690       $unwind$_fputwc_nolock     0000000180027690     libucrt:fputwc.obj
 0002:0000a6ac       $unwind$__acrt_initialize_lowio 00000001800276ac     libucrt:ioinit.obj
 0002:0000a6cc       $unwind$?initialize_inherited_file_handles_nolock@@YAXXZ 00000001800276cc     libucrt:ioinit.obj
 0002:0000a6e8       $unwind$_write             00000001800276e8     libucrt:write.obj
 0002:0000a718       $unwind$_write_nolock      0000000180027718     libucrt:write.obj
 0002:0000a730       $unwind$?write_double_translated_ansi_nolock@@YA?AUwrite_result@?A0x17268360@@HQEBDI@Z 0000000180027730     libucrt:write.obj
 0002:0000a754       $unwind$?write_text_utf16le_nolock@@YA?AUwrite_result@?A0x17268360@@HQEBDI@Z 0000000180027754     libucrt:write.obj
 0002:0000a754       $unwind$?write_text_ansi_nolock@@YA?AUwrite_result@?A0x17268360@@HQEBDI@Z 0000000180027754     libucrt:write.obj
 0002:0000a774       $unwind$?write_text_utf8_nolock@@YA?AUwrite_result@?A0x17268360@@HQEBDI@Z 0000000180027774     libucrt:write.obj
 0002:0000a798       $unwind$??$write_buffer_nolock@D@@YA_NDV__crt_stdio_stream@@@Z 0000000180027798     libucrt:_flsbuf.obj
 0002:0000a7a8       $unwind$??$write_buffer_nolock@_W@@YA_N_WV__crt_stdio_stream@@@Z 00000001800277a8     libucrt:_flsbuf.obj
 0002:0000a7b8       $unwind$??$__acrt_mbs_to_wcs_cp@U__crt_win32_buffer_internal_dynamic_resizing@@@@YAHQEBDAEAV?$__crt_win32_buffer@_WU__crt_win32_buffer_internal_dynamic_resizing@@@@I@Z 00000001800277b8     libucrt:argv_wildcards.obj
 0002:0000a7d0       $unwind$??$common_expand_argv_wildcards@D@@YAHQEAPEADQEAPEAPEAD@Z 00000001800277d0     libucrt:argv_wildcards.obj
 0002:0000a7e8       $unwind$??$copy_and_add_argument_to_buffer@D@@YAHQEBD0_KAEAV?$argument_list@D@?A0x5f5c8891@@@Z 00000001800277e8     libucrt:argv_wildcards.obj
 0002:0000a804       $unwind$??$expand_argument_wildcards@D@@YAHQEAD0AEAV?$argument_list@D@?A0x5f5c8891@@@Z 0000000180027804     libucrt:argv_wildcards.obj
 0002:0000a828       $unwind$_setmbcp_nolock    0000000180027828     libucrt:mbctype.obj
 0002:0000a848       $unwind$?update_thread_multibyte_data_internal@@YAPEAU__crt_multibyte_data@@QEAU__acrt_ptd@@QEAPEAU1@@Z 0000000180027848     libucrt:mbctype.obj
 0002:0000a870       $unwind$?setmbcp_internal@@YAHH_NQEAU__acrt_ptd@@QEAPEAU__crt_multibyte_data@@@Z 0000000180027870     libucrt:mbctype.obj
 0002:0000a880       $unwind$?setSBUpLow@@YAXPEAU__crt_multibyte_data@@@Z 0000000180027880     libucrt:mbctype.obj
 0002:0000a89c       $unwind$??$?RV<lambda_efdfa57d1f175319df784efa44bb7b81>@@AEAV<lambda_5f0a4c1567f8adc6734073e5d1e1b35c>@@V<lambda_2e8a7d3640ea6ccb4c2413664c2db6fd>@@@?$__crt_seh_guarded_call@X@@QEAAX$$QEAV<lambda_efdfa57d1f175319df784efa44bb7b81>@@AEAV<lambda_5f0a4c1567f8adc6734073e5d1e1b35c>@@$$QEAV<lambda_2e8a7d3640ea6ccb4c2413664c2db6fd>@@@Z 000000018002789c     libucrt:mbctype.obj
 0002:0000a8c0       $unwind$__acrt_WideCharToMultiByte 00000001800278c0     libucrt:widechartomultibyte.obj
 0002:0000a8c0       $unwind$__GSHandlerCheckCommon 00000001800278c0     LIBCMT:gshandler.obj
 0002:0000a8c8       $unwind$__acrt_is_interactive 00000001800278c8     libucrt:winapi_thunks.obj
 0002:0000a8dc       $unwind$iswctype           00000001800278dc     libucrt:iswctype.obj
 0002:0000a8e8       $unwind$_isctype_l         00000001800278e8     libucrt:isctype.obj
 0002:0000a904       $unwind$_fcloseall         0000000180027904     libucrt:closeall.obj
 0002:0000a928       $unwind$_commit            0000000180027928     libucrt:commit.obj
 0002:0000a928       $unwind$_close             0000000180027928     libucrt:close.obj
 0002:0000a930       $unwind$??$?RV<lambda_a37b2b86f63e897a80ea819b0eb08c01>@@AEAV<lambda_38ce7e780aa69e748d6df282ebc68efe>@@V<lambda_99fb1378e971ab6e7edea83e3a7a83a2>@@@?$__crt_seh_guarded_call@H@@QEAAH$$QEAV<lambda_a37b2b86f63e897a80ea819b0eb08c01>@@AEAV<lambda_38ce7e780aa69e748d6df282ebc68efe>@@$$QEAV<lambda_99fb1378e971ab6e7edea83e3a7a83a2>@@@Z 0000000180027930     libucrt:commit.obj
 0002:0000a954       $unwind$__acrt_update_thread_locale_data 0000000180027954     libucrt:locale_refcounting.obj
 0002:0000a978       $unwind$__acrt_LCMapStringA 0000000180027978     libucrt:lcmapstringa.obj
 0002:0000a988       $unwind$?__acrt_LCMapStringA_stat@@YAHPEAU__crt_locale_pointers@@PEB_WKPEBDHPEADHHH@Z 0000000180027988     libucrt:lcmapstringa.obj
 0002:0000a9b0       $unwind$__acrt_locale_free_time 00000001800279b0     libucrt:inittime.obj
 0002:0000a9c0       $unwind$__acrt_GetStringTypeA 00000001800279c0     libucrt:getstringtypea.obj
 0002:0000a9e8       $unwind$?__mbsrtowcs_utf8@__crt_mbstring@@YA_KPEA_WPEAPEBD_KPEAU_Mbstatet@@@Z 00000001800279e8     libucrt:mbrtowc.obj
 0002:0000aa00       $unwind$__acrt_fltout      0000000180027a00     libucrt:cfout.obj
 0002:0000aa20       $unwind$?divide@__crt_strtox@@YA_KAEAUbig_integer@1@AEBU21@@Z 0000000180027a20     libucrt:cfout.obj
 0002:0000aa38       $chain$0$?divide@__crt_strtox@@YA_KAEAUbig_integer@1@AEBU21@@Z 0000000180027a38     libucrt:cfout.obj
 0002:0000aa4c       $chain$1$?divide@__crt_strtox@@YA_KAEAUbig_integer@1@AEBU21@@Z 0000000180027a4c     libucrt:cfout.obj
 0002:0000aa5c       $unwind$__acrt_lowio_destroy_handle_array 0000000180027a5c     libucrt:osfinfo.obj
 0002:0000aa6c       $unwind$__acrt_lowio_ensure_fh_exists 0000000180027a6c     libucrt:osfinfo.obj
 0002:0000aa98       $unwind$??$common_lseek@_J@@YA_JH_JH@Z 0000000180027a98     libucrt:lseek.obj
 0002:0000aac8       $unwind$_putwch_nolock     0000000180027ac8     libucrt:putwch.obj
 0002:0000aad0       $unwind$qsort              0000000180027ad0     libucrt:qsort.obj
 0002:0000aae8       $chain$4$qsort             0000000180027ae8     libucrt:qsort.obj
 0002:0000ab0c       $chain$5$qsort             0000000180027b0c     libucrt:qsort.obj
 0002:0000ab1c       $unwind$fallbackMethod     0000000180027b1c     libucrt:strpbrk.obj
 0002:0000ab2c       $unwind$?GetTableIndexFromLocaleName@@YAHPEB_W@Z 0000000180027b2c     libucrt:lcidtoname_downlevel.obj
 0002:0000ab44       $unwind$fclose             0000000180027b44     libucrt:fclose.obj
 0002:0000ab68       $unwind$?__mbrtoc32_utf8@__crt_mbstring@@YA_KPEA_UPEBD_KPEAU_Mbstatet@@@Z 0000000180027b68     libucrt:mbrtoc32.obj
 0002:0000ab88       $xdatasym                  0000000180027b88     libucrt:log10.obj
 0002:0000ab94       $unwind$??$?RV<lambda_751a882b2c74d4b022dec766aa51a29a>@@AEAV<lambda_628dfdc04ba53c8bfc02c9951375f3f5>@@V<lambda_f6c7be5f7998530c34de24c7437d6b54>@@@?$__crt_seh_guarded_call@H@@QEAAH$$QEAV<lambda_751a882b2c74d4b022dec766aa51a29a>@@AEAV<lambda_628dfdc04ba53c8bfc02c9951375f3f5>@@$$QEAV<lambda_f6c7be5f7998530c34de24c7437d6b54>@@@Z 0000000180027b94     libucrt:close.obj
 0002:0000abb8       $unwind$__acrt_fenv_set_control 0000000180027bb8     libucrt:_fenvutils.obj
 0002:0000abc8       $unwind$_call_matherr      0000000180027bc8     libucrt:libm_error.obj
 0002:0000abd0       $unwind$_handle_error      0000000180027bd0     libucrt:libm_error.obj
 0002:0000abf0       $unwind$__acrt_initialize_fma3 0000000180027bf0     libucrt:fma3_available.obj
 0002:0000abf8       $unwind$_log_special_common 0000000180027bf8     libucrt:log_special.obj
 0002:0000ac08       $xdatasym                  0000000180027c08     libucrt:fpsr.obj
 0002:0000ac10       $unwind$_raise_exc_ex      0000000180027c10     libucrt:fpexcept.obj
 0002:0000ac24       $unwind$_ctrlfp            0000000180027c24     libucrt:fpctrl.obj
 0002:0000ac4c       $unwind$?DloadObtainSection@@YAPEAXPEAK0@Z 0000000180027c4c     DelayImp:delayhlp.obj
 0002:0000ac5c       $unwind$?DloadMakePermanentImageCommit@@YAXPEAX_K@Z 0000000180027c5c     DelayImp:delayhlp.obj
 0002:0000ac68       $unwind$?DloadProtectSection@@YAXKPEAK@Z 0000000180027c68     DelayImp:delayhlp.obj
 0002:0000ac78       $unwind$__delayLoadHelper2 0000000180027c78     DelayImp:delayhlp.obj
 0002:0000ac90       $unwind$_IsNonwritableInCurrentImage 0000000180027c90     LIBCMT:pesect.obj
 0002:0000acb8       $xdatasym                  0000000180027cb8     LIBCMT:chkstk.obj
 0002:0000acc0       $xdatasym                  0000000180027cc0     libvcruntime:memcmp.obj
 0002:0000acc4       $unwind$strrchr            0000000180027cc4     libvcruntime:strrchr.obj
 0002:0000c0e0       .edata                     00000001800290e0     msgpackBinding.exp
 0002:0000c108       rgpv                       0000000180029108     msgpackBinding.exp
 0002:0000c168       rgszName                   0000000180029168     msgpackBinding.exp
 0002:0000c1c8       rgwOrd                     00000001800291c8     msgpackBinding.exp
 0002:0000c1f8       szName                     00000001800291f8     msgpackBinding.exp
 0002:0000c20c       $N00001                    000000018002920c     msgpackBinding.exp
 0002:0000c226       $N00002                    0000000180029226     msgpackBinding.exp
 0002:0000c23b       $N00003                    000000018002923b     msgpackBinding.exp
 0002:0000c250       $N00004                    0000000180029250     msgpackBinding.exp
 0002:0000c25f       $N00005                    000000018002925f     msgpackBinding.exp
 0002:0000c273       $N00006                    0000000180029273     msgpackBinding.exp
 0002:0000c289       $N00007                    0000000180029289     msgpackBinding.exp
 0002:0000c2a2       $N00008                    00000001800292a2     msgpackBinding.exp
 0002:0000c2bb       $N00009                    00000001800292bb     msgpackBinding.exp
 0002:0000c2da       $N00010                    00000001800292da     msgpackBinding.exp
 0002:0000c2f6       $N00011                    00000001800292f6     msgpackBinding.exp
 0002:0000c30c       $N00012                    000000018002930c     msgpackBinding.exp
 0002:0000c322       $N00013                    0000000180029322     msgpackBinding.exp
 0002:0000c337       $N00014                    0000000180029337     msgpackBinding.exp
 0002:0000c34d       $N00015                    000000018002934d     msgpackBinding.exp
 0002:0000c36b       $N00016                    000000018002936b     msgpackBinding.exp
 0002:0000c382       $N00017                    0000000180029382     msgpackBinding.exp
 0002:0000c39e       $N00018                    000000018002939e     msgpackBinding.exp
 0002:0000c3b1       $N00019                    00000001800293b1     msgpackBinding.exp
 0002:0000c3c6       $N00020                    00000001800293c6     msgpackBinding.exp
 0002:0000c3d8       $N00021                    00000001800293d8     msgpackBinding.exp
 0002:0000c3ea       $N00022                    00000001800293ea     msgpackBinding.exp
 0002:0000c400       $N00023                    0000000180029400     msgpackBinding.exp
 0002:0000c41b       $N00024                    000000018002941b     msgpackBinding.exp
 0002:0000c6cc       .idata$6                   00000001800296cc     kernel32:KERNEL32.dll
 0003:00000030       ?__vcrt_flsindex@@3KA      000000018002a030     libvcruntime:per_thread_data.obj
 0003:00000050       ?errno_no_memory@@3HA      000000018002a050     libucrt:errno.obj
 0003:00000054       ?doserrno_no_memory@@3KA   000000018002a054     libucrt:errno.obj
 0003:00000168       ?__acrt_flsindex@@3KA      000000018002a168     libucrt:per_thread_data.obj
 0003:00000330       _mbctypes                  000000018002a330     libucrt:mbctype.obj
 0003:00000440       _mbcasemaps                000000018002a440     libucrt:mbctype.obj
 0003:00000540       ?__rgctypeflag@@3PADA      000000018002a540     libucrt:mbctype.obj
 0003:00000550       ?__rgcode_page_info@@3PAUcode_page_info@@A 000000018002a550     libucrt:mbctype.obj
 0003:00000a20       ?__dcrt_lowio_console_output_handle@@3PEAXEA 000000018002aa20     libucrt:initcon.obj
 0003:00000a30       ?dazSupported@?1??_ctrlfp@@9@9 000000018002aa30     libucrt:fpctrl.obj
 0003:00000a50       _module                    000000018002aa50     msgpack.obj
 0003:00000db8       ?is_initialized_as_dll@@3_NA 000000018002adb8     LIBCMT:utility.obj
 0003:00000db9       ?module_local_atexit_table_initialized@@3_NA 000000018002adb9     LIBCMT:utility.obj
 0003:00000dc0       ?module_local_atexit_table@@3U_onexit_table_t@@A 000000018002adc0     LIBCMT:utility.obj
 0003:00000dd8       ?module_local_at_quick_exit_table@@3U_onexit_table_t@@A 000000018002add8     LIBCMT:utility.obj
 0003:00000df0       ?__proc_attached@@3HA      000000018002adf0     LIBCMT:dll_dllmain.obj
 0003:00000e00       GS_ExceptionRecord         000000018002ae00     LIBCMT:gs_report.obj
 0003:00000ea0       GS_ContextRecord           000000018002aea0     LIBCMT:gs_report.obj
 0003:000013a0       ?__vcrt_startup_thread_ptd@@3U__vcrt_ptd@@A 000000018002b3a0     libvcruntime:per_thread_data.obj
 0003:00001430       __vcrt_lock_table          000000018002b430     libvcruntime:locks.obj
 0003:00001458       __vcrt_locks_initialized   000000018002b458     libvcruntime:locks.obj
 0003:00001460       ?module_handles@@3PAPEAUHINSTANCE__@@A 000000018002b460     libvcruntime:winapi_downlevel.obj
 0003:00001478       ?encoded_function_pointers@@3PAPEAXA 000000018002b478     libvcruntime:winapi_downlevel.obj
 0003:000014e8       ?heap@@3V_HeapManager@@A   000000018002b4e8     libvcruntime:undname.obj
 0003:00001510       ?__acrt_invalid_parameter_handler@@3V?$dual_state_global@P6AXPEB_W00I_K@Z@__crt_state_management@@A 000000018002b510     libucrt:invalid_parameter.obj
 0003:00001518       ?__acrt_new_handler@@3V?$dual_state_global@P6AH_K@Z@__crt_state_management@@A 000000018002b518     libucrt:new_handler.obj
 0003:00001520       ?c_termination_complete@@3JA 000000018002b520     libucrt:exit.obj
 0003:00001528       ?thread_local_exit_callback_func@@3P6AXPEAXK0@ZEA 000000018002b528     libucrt:exit.obj
 0003:00001540       ?program_name@?1???$common_configure_argv@D@@YAHW4_crt_argv_mode@@@Z@4PADA 000000018002b540     libucrt:argv_parsing.obj
 0003:00001698       ?__acrt_app_type@@3W4_crt_app_type@@A 000000018002b698     libucrt:report_runtime_error.obj
 0003:0000169c       __acrt_error_mode          000000018002b69c     libucrt:set_error_mode.obj
 0003:000016b8       ?ctrlc_action@@3V?$dual_state_global@P6AXH@Z@__crt_state_management@@A 000000018002b6b8     libucrt:signal.obj
 0003:000016c0       ?ctrlbreak_action@@3V?$dual_state_global@P6AXH@Z@__crt_state_management@@A 000000018002b6c0     libucrt:signal.obj
 0003:000016c8       ?abort_action@@3V?$dual_state_global@P6AXH@Z@__crt_state_management@@A 000000018002b6c8     libucrt:signal.obj
 0003:000016d0       ?term_action@@3V?$dual_state_global@P6AXH@Z@__crt_state_management@@A 000000018002b6d0     libucrt:signal.obj
 0003:000016e8       ?internal_state@?1??_mbtowc_l@@9@4U_Mbstatet@@A 000000018002b6e8     libucrt:mbtowc.obj
 0003:000016f0       ?enable_percent_n@@3_KA    000000018002b6f0     libucrt:printf_count_output.obj
 0003:00001b20       ?__acrt_lock_table@@3PAU_RTL_CRITICAL_SECTION@@A 000000018002bb20     libucrt:locks.obj
 0003:00001d50       ?__acrt_locks_initialized@@3IA 000000018002bd50     libucrt:locks.obj
 0003:00001d54       ?state_cache@?1???$get_cached_win_policy@Udeveloper_information_policy_properties@?1??__acrt_get_developer_information_policy@@YA?AW4developer_information_policy@@XZ@@@YA?AW4developer_information_policy@@W4AppPolicyShowDeveloperDiagnostic@@@Z@4JA 000000018002bd54     libucrt:win_policies.obj
 0003:00001d58       ?state_cache@?1???$get_cached_win_policy@Uwindowing_model_policy_properties@?1??__acrt_get_windowing_model_policy@@YA?AW4windowing_model_policy@@XZ@@@YA?AW4windowing_model_policy@@W4AppPolicyWindowingModel@@@Z@4JA 000000018002bd58     libucrt:win_policies.obj
 0003:00001d78       ?fSystemSet@@3HA           000000018002bd78     libucrt:mbctype.obj
 0003:00001d7c       ?initialized@?1??__acrt_initialize_multibyte@@9@4_NA 000000018002bd7c     libucrt:mbctype.obj
 0003:00001db0       ?module_handles@@3PAPEAUHINSTANCE__@@A 000000018002bdb0     libucrt:winapi_thunks.obj
 0003:00001e50       ?encoded_function_pointers@@3PAPEAXA 000000018002be50     libucrt:winapi_thunks.obj
 0003:00001f68       ?user_matherr@@3V?$dual_state_global@P6AHPEAU_exception@@@Z@__crt_state_management@@A 000000018002bf68     libucrt:matherr.obj
 0003:00001f70       ?__acrt_global_new_mode@@3V?$dual_state_global@J@__crt_state_management@@A 000000018002bf70     libucrt:new_mode.obj
 0003:00001f80       ?internal_pst@?1??__mbrtoc32_utf8@__crt_mbstring@@YA_KPEA_UPEBD_KPEAU_Mbstatet@@@Z@4U3@A 000000018002bf80     libucrt:mbrtoc32.obj
 0003:00001fc0       ?msgpack_unpack_template@@3V?$Persistent@VFunctionTemplate@v8@@V?$NonCopyablePersistentTraits@VFunctionTemplate@v8@@@2@@Nan@@A 000000018002bfc0     msgpack.obj
 0003:00001fc8       ?sbuffers@@3V?$stack@PEAUmsgpack_sbuffer@@V?$deque@PEAUmsgpack_sbuffer@@V?$allocator@PEAUmsgpack_sbuffer@@@std@@@std@@@std@@A 000000018002bfc8     msgpack.obj
 0004:00000000       $pdata$??__Esbuffers@@YAXXZ 000000018002d000     msgpack.obj
 0004:0000000c       $pdata$msgpack_sbuffer_write 000000018002d00c     msgpack.obj
 0004:00000018       $pdata$?FunctionCallbackWrapper@imp@Nan@@YAXAEBV?$FunctionCallbackInfo@VValue@v8@@@v8@@@Z 000000018002d018     msgpack.obj
 0004:00000024       $pdata$?ThrowError@Nan@@YAXPEBD@Z 000000018002d024     msgpack.obj
 0004:00000030       $pdata$?DecodeWrite@Nan@@YA_JPEAD_KV?$Local@VValue@v8@@@v8@@W4Encoding@1@@Z 000000018002d030     msgpack.obj
 0004:0000003c       $pdata$??0MsgpackException@@QEAA@PEBD@Z 000000018002d03c     msgpack.obj
 0004:00000048       $pdata$??1MsgpackZone@@QEAA@XZ 000000018002d048     msgpack.obj
 0004:00000054       $pdata$?_free_sbuf@@YAXPEADPEAX@Z 000000018002d054     msgpack.obj
 0004:00000060       $pdata$1$?_free_sbuf@@YAXPEADPEAX@Z 000000018002d060     msgpack.obj
 0004:0000006c       $pdata$2$?_free_sbuf@@YAXPEADPEAX@Z 000000018002d06c     msgpack.obj
 0004:00000078       $pdata$?v8_to_msgpack@@YAXV?$Local@VValue@v8@@@v8@@PEAUmsgpack_object@@PEAUmsgpack_zone@@_K@Z 000000018002d078     msgpack.obj
 0004:00000084       $pdata$0$?v8_to_msgpack@@YAXV?$Local@VValue@v8@@@v8@@PEAUmsgpack_object@@PEAUmsgpack_zone@@_K@Z 000000018002d084     msgpack.obj
 0004:00000090       $pdata$1$?v8_to_msgpack@@YAXV?$Local@VValue@v8@@@v8@@PEAUmsgpack_object@@PEAUmsgpack_zone@@_K@Z 000000018002d090     msgpack.obj
 0004:0000009c       $pdata$2$?v8_to_msgpack@@YAXV?$Local@VValue@v8@@@v8@@PEAUmsgpack_object@@PEAUmsgpack_zone@@_K@Z 000000018002d09c     msgpack.obj
 0004:000000a8       $pdata$3$?v8_to_msgpack@@YAXV?$Local@VValue@v8@@@v8@@PEAUmsgpack_object@@PEAUmsgpack_zone@@_K@Z 000000018002d0a8     msgpack.obj
 0004:000000b4       $pdata$?msgpack_to_v8@@YA?AV?$Local@VValue@v8@@@v8@@PEAUmsgpack_object@@@Z 000000018002d0b4     msgpack.obj
 0004:000000c0       $pdata$0$?msgpack_to_v8@@YA?AV?$Local@VValue@v8@@@v8@@PEAUmsgpack_object@@@Z 000000018002d0c0     msgpack.obj
 0004:000000cc       $pdata$1$?msgpack_to_v8@@YA?AV?$Local@VValue@v8@@@v8@@PEAUmsgpack_object@@@Z 000000018002d0cc     msgpack.obj
 0004:000000d8       $pdata$?pack@@YAXAEBV?$FunctionCallbackInfo@VValue@v8@@@Nan@@@Z 000000018002d0d8     msgpack.obj
 0004:000000e4       $pdata$?unpack@@YAXAEBV?$FunctionCallbackInfo@VValue@v8@@@Nan@@@Z 000000018002d0e4     msgpack.obj
 0004:000000f0       $pdata$?init@@YAXV?$Local@VObject@v8@@@v8@@@Z 000000018002d0f0     msgpack.obj
 0004:000000fc       $pdata$?_Growmap@?$deque@PEAUmsgpack_sbuffer@@V?$allocator@PEAUmsgpack_sbuffer@@@std@@@std@@IEAAX_K@Z 000000018002d0fc     msgpack.obj
 0004:00000108       $pdata$2$?_Growmap@?$deque@PEAUmsgpack_sbuffer@@V?$allocator@PEAUmsgpack_sbuffer@@@std@@@std@@IEAAX_K@Z 000000018002d108     msgpack.obj
 0004:00000114       $pdata$4$?_Growmap@?$deque@PEAUmsgpack_sbuffer@@V?$allocator@PEAUmsgpack_sbuffer@@@std@@@std@@IEAAX_K@Z 000000018002d114     msgpack.obj
 0004:00000120       $pdata$5$?_Growmap@?$deque@PEAUmsgpack_sbuffer@@V?$allocator@PEAUmsgpack_sbuffer@@@std@@@std@@IEAAX_K@Z 000000018002d120     msgpack.obj
 0004:0000012c       $pdata$7$?_Growmap@?$deque@PEAUmsgpack_sbuffer@@V?$allocator@PEAUmsgpack_sbuffer@@@std@@@std@@IEAAX_K@Z 000000018002d12c     msgpack.obj
 0004:00000138       $pdata$8$?_Growmap@?$deque@PEAUmsgpack_sbuffer@@V?$allocator@PEAUmsgpack_sbuffer@@@std@@@std@@IEAAX_K@Z 000000018002d138     msgpack.obj
 0004:00000144       $pdata$?_Xlen@?$deque@PEAUmsgpack_sbuffer@@V?$allocator@PEAUmsgpack_sbuffer@@@std@@@std@@IEBAXXZ 000000018002d144     msgpack.obj
 0004:00000150       $pdata$??$New@VFunctionTemplate@v8@@@Nan@@YA?AV?$Local@VFunctionTemplate@v8@@@v8@@P6AXAEBV?$FunctionCallbackInfo@VValue@v8@@@0@@ZV?$Local@VValue@v8@@@2@@Z 000000018002d150     msgpack.obj
 0004:0000015c       $pdata$?load_exe_hook@@YAP6A_JXZIPEAUDelayLoadInfo@@@Z 000000018002d15c     win_delay_load_hook.obj
 0004:00000168       $pdata$msgpack_zone_malloc_expand 000000018002d168     libmsgpack:zone.obj
 0004:00000174       $pdata$msgpack_zone_destroy 000000018002d174     libmsgpack:zone.obj
 0004:00000180       $pdata$msgpack_zone_clear  000000018002d180     libmsgpack:zone.obj
 0004:0000018c       $pdata$msgpack_zone_init   000000018002d18c     libmsgpack:zone.obj
 0004:00000198       $pdata$msgpack_zone_new    000000018002d198     libmsgpack:zone.obj
 0004:000001a4       $pdata$msgpack_zone_free   000000018002d1a4     libmsgpack:zone.obj
 0004:000001b0       $pdata$msgpack_zone_push_finalizer 000000018002d1b0     libmsgpack:unpack.obj
 0004:000001bc       $pdata$0$msgpack_zone_push_finalizer 000000018002d1bc     libmsgpack:unpack.obj
 0004:000001c8       $pdata$2$msgpack_zone_push_finalizer 000000018002d1c8     libmsgpack:unpack.obj
 0004:000001d4       $pdata$3$msgpack_zone_push_finalizer 000000018002d1d4     libmsgpack:unpack.obj
 0004:000001e0       $pdata$?template_execute@@YAHPEAUtemplate_context@@PEBD_KPEA_K@Z 000000018002d1e0     libmsgpack:unpack.obj
 0004:000001ec       $pdata$msgpack_unpacker_init 000000018002d1ec     libmsgpack:unpack.obj
 0004:000001f8       $pdata$msgpack_unpacker_destroy 000000018002d1f8     libmsgpack:unpack.obj
 0004:00000204       $pdata$msgpack_unpacker_new 000000018002d204     libmsgpack:unpack.obj
 0004:00000210       $pdata$msgpack_unpacker_free 000000018002d210     libmsgpack:unpack.obj
 0004:0000021c       $pdata$msgpack_unpacker_expand_buffer 000000018002d21c     libmsgpack:unpack.obj
 0004:00000228       $pdata$msgpack_unpacker_execute 000000018002d228     libmsgpack:unpack.obj
 0004:00000234       $pdata$msgpack_unpacker_release_zone 000000018002d234     libmsgpack:unpack.obj
 0004:00000240       $pdata$msgpack_unpacker_flush_zone 000000018002d240     libmsgpack:unpack.obj
 0004:0000024c       $pdata$msgpack_unpacker_reset 000000018002d24c     libmsgpack:unpack.obj
 0004:00000258       $pdata$msgpack_unpacker_next 000000018002d258     libmsgpack:unpack.obj
 0004:00000264       $pdata$msgpack_unpack      000000018002d264     libmsgpack:unpack.obj
 0004:00000270       $pdata$msgpack_unpack_next 000000018002d270     libmsgpack:unpack.obj
 0004:0000027c       $pdata$fprintf             000000018002d27c     libmsgpack:objectc.obj
 0004:00000288       $pdata$msgpack_pack_int64  000000018002d288     libmsgpack:objectc.obj
 0004:00000294       $pdata$msgpack_pack_object 000000018002d294     libmsgpack:objectc.obj
 0004:000002a0       $pdata$msgpack_object_print 000000018002d2a0     libmsgpack:objectc.obj
 0004:000002ac       $pdata$0$msgpack_object_print 000000018002d2ac     libmsgpack:objectc.obj
 0004:000002b8       $pdata$1$msgpack_object_print 000000018002d2b8     libmsgpack:objectc.obj
 0004:000002c4       $pdata$msgpack_object_equal 000000018002d2c4     libmsgpack:objectc.obj
 0004:000002dc       $pdata$??0bad_alloc@std@@QEAA@AEBV01@@Z 000000018002d2dc     libcpmt:xthrow.obj
 0004:000002e8       $pdata$??0exception@std@@QEAA@AEBV01@@Z 000000018002d2e8     libcpmt:xthrow.obj
 0004:000002f4       $pdata$??0length_error@std@@QEAA@AEBV01@@Z 000000018002d2f4     libcpmt:xthrow.obj
 0004:00000300       $pdata$??0length_error@std@@QEAA@PEBD@Z 000000018002d300     libcpmt:xthrow.obj
 0004:0000030c       $pdata$??0logic_error@std@@QEAA@AEBV01@@Z 000000018002d30c     libcpmt:xthrow.obj
 0004:00000318       $pdata$??_Gbad_exception@std@@UEAAPEAXI@Z 000000018002d318     libvcruntime:frame.obj
 0004:00000318       $pdata$??_Glogic_error@std@@UEAAPEAXI@Z 000000018002d318     libcpmt:xthrow.obj
 0004:00000318       $pdata$??_Gbad_alloc@std@@UEAAPEAXI@Z 000000018002d318     libcpmt:xthrow.obj
 0004:00000318       $pdata$??_Glength_error@std@@UEAAPEAXI@Z 000000018002d318     libcpmt:xthrow.obj
 0004:00000318       $pdata$??_Gbad_array_new_length@std@@UEAAPEAXI@Z 000000018002d318     LIBCMT:throw_bad_alloc.obj
 0004:00000318       $pdata$??_Gexception@std@@UEAAPEAXI@Z 000000018002d318     libcpmt:xthrow.obj
 0004:00000324       $pdata$?_Xlength_error@std@@YAXPEBD@Z 000000018002d324     libcpmt:xthrow.obj
 0004:0000033c       $pdata$??2@YAPEAX_K@Z      000000018002d33c     LIBCMT:new_scalar.obj
 0004:00000348       $pdata$__scrt_acquire_startup_lock 000000018002d348     LIBCMT:utility.obj
 0004:00000354       $pdata$__scrt_dllmain_after_initialize_c 000000018002d354     LIBCMT:utility.obj
 0004:00000360       $pdata$__scrt_dllmain_before_initialize_c 000000018002d360     LIBCMT:utility.obj
 0004:0000036c       $pdata$__scrt_dllmain_crt_thread_attach 000000018002d36c     LIBCMT:utility.obj
 0004:00000378       $pdata$__scrt_dllmain_crt_thread_detach 000000018002d378     LIBCMT:utility.obj
 0004:00000384       $pdata$__scrt_dllmain_exception_filter 000000018002d384     LIBCMT:utility.obj
 0004:00000390       $pdata$__scrt_dllmain_uninitialize_c 000000018002d390     LIBCMT:utility.obj
 0004:0000039c       $pdata$__scrt_dllmain_uninitialize_critical 000000018002d39c     LIBCMT:utility.obj
 0004:000003a8       $pdata$__scrt_initialize_crt 000000018002d3a8     LIBCMT:utility.obj
 0004:000003b4       $pdata$__scrt_initialize_onexit_tables 000000018002d3b4     LIBCMT:utility.obj
 0004:000003c0       $pdata$__scrt_is_nonwritable_in_current_image 000000018002d3c0     LIBCMT:utility.obj
 0004:000003cc       $pdata$__scrt_release_startup_lock 000000018002d3cc     LIBCMT:utility.obj
 0004:000003d8       $pdata$__scrt_uninitialize_crt 000000018002d3d8     LIBCMT:utility.obj
 0004:000003e4       $pdata$_onexit             000000018002d3e4     LIBCMT:utility.obj
 0004:000003f0       $pdata$atexit              000000018002d3f0     LIBCMT:utility.obj
 0004:000003fc       $pdata$??_Gtype_info@@UEAAPEAXI@Z 000000018002d3fc     LIBCMT:std_type_info_static.obj
 0004:00000408       $pdata$?dllmain_crt_dispatch@@YAHQEAUHINSTANCE__@@KQEAX@Z 000000018002d408     LIBCMT:dll_dllmain.obj
 0004:00000414       $pdata$?dllmain_crt_process_attach@@YAHQEAUHINSTANCE__@@QEAX@Z 000000018002d414     LIBCMT:dll_dllmain.obj
 0004:00000420       $pdata$?dllmain_crt_process_detach@@YAH_N@Z 000000018002d420     LIBCMT:dll_dllmain.obj
 0004:0000042c       $pdata$?dllmain_dispatch@@YAHQEAUHINSTANCE__@@KQEAX@Z 000000018002d42c     LIBCMT:dll_dllmain.obj
 0004:00000438       $pdata$_DllMainCRTStartup  000000018002d438     LIBCMT:dll_dllmain.obj
 0004:00000444       $pdata$__raise_securityfailure 000000018002d444     LIBCMT:gs_report.obj
 0004:00000450       $pdata$__report_gsfailure  000000018002d450     LIBCMT:gs_report.obj
 0004:0000045c       $pdata$__report_rangecheckfailure 000000018002d45c     LIBCMT:gs_report.obj
 0004:00000468       $pdata$__report_securityfailure 000000018002d468     LIBCMT:gs_report.obj
 0004:00000474       $pdata$capture_current_context 000000018002d474     LIBCMT:gs_report.obj
 0004:00000480       $pdata$capture_previous_context 000000018002d480     LIBCMT:gs_report.obj
 0004:0000048c       $pdata$??0bad_array_new_length@std@@QEAA@AEBV01@@Z 000000018002d48c     LIBCMT:throw_bad_alloc.obj
 0004:00000498       $pdata$?__scrt_throw_std_bad_alloc@@YAXXZ 000000018002d498     LIBCMT:throw_bad_alloc.obj
 0004:000004a4       $pdata$?__scrt_throw_std_bad_array_new_length@@YAXXZ 000000018002d4a4     LIBCMT:throw_bad_alloc.obj
 0004:000004b0       $pdata$__isa_available_init 000000018002d4b0     LIBCMT:cpu_disp.obj
 0004:000004bc       $pdata$__scrt_fastfail     000000018002d4bc     LIBCMT:utility_desktop.obj
 0004:000004c8       $pdata$__security_init_cookie 000000018002d4c8     LIBCMT:gs_support.obj
 0004:000004d4       $pdata$__scrt_initialize_default_local_stdio_options 000000018002d4d4     LIBCMT:default_local_stdio_options.obj
 0004:000004e0       $pdata$_RTC_Initialize     000000018002d4e0     LIBCMT:initsect.obj
 0004:000004ec       $pdata$_RTC_Terminate      000000018002d4ec     LIBCMT:initsect.obj
 0004:000004f8       $pdata$??$_CallSETranslator@V__FrameHandler3@@@@YAHPEAUEHExceptionRecord@@PEA_KPEAU_CONTEXT@@PEAU_xDISPATCHER_CONTEXT@@PEBU_s_FuncInfo@@K1@Z 000000018002d4f8     libvcruntime:risctrnsctrl.obj
 0004:00000504       $pdata$?CatchTryBlock@__FrameHandler3@@SAPEBU_s_TryBlockMapEntry@@PEBU_s_FuncInfo@@H@Z 000000018002d504     libvcruntime:risctrnsctrl.obj
 0004:00000510       $pdata$?ExecutionInCatch@__FrameHandler3@@SA_NPEAU_xDISPATCHER_CONTEXT@@PEBU_s_FuncInfo@@@Z 000000018002d510     libvcruntime:risctrnsctrl.obj
 0004:0000051c       $pdata$?FrameUnwindToEmptyState@__FrameHandler3@@SAXPEA_KPEAU_xDISPATCHER_CONTEXT@@PEBU_s_FuncInfo@@@Z 000000018002d51c     libvcruntime:risctrnsctrl.obj
 0004:00000528       $pdata$?GetEstablisherFrame@__FrameHandler3@@SAPEA_KPEA_KPEAU_xDISPATCHER_CONTEXT@@PEBU_s_FuncInfo@@0@Z 000000018002d528     libvcruntime:risctrnsctrl.obj
 0004:00000534       $pdata$?GetRangeOfTrysToCheck@__FrameHandler3@@SA?AU?$pair@Viterator@TryBlockMap@__FrameHandler3@@V123@@std@@AEAVTryBlockMap@1@HH@Z 000000018002d534     libvcruntime:risctrnsctrl.obj
 0004:00000540       $pdata$?UnwindNestedFrames@__FrameHandler3@@SAXPEA_KPEAUEHExceptionRecord@@PEAU_CONTEXT@@0PEAXPEBU_s_FuncInfo@@HHPEBU_s_HandlerType@@PEAU_xDISPATCHER_CONTEXT@@E@Z 000000018002d540     libvcruntime:risctrnsctrl.obj
 0004:0000054c       $pdata$_CreateFrameInfo    000000018002d54c     libvcruntime:risctrnsctrl.obj
 0004:00000558       $pdata$_FindAndUnlinkFrame 000000018002d558     libvcruntime:risctrnsctrl.obj
 0004:00000564       $pdata$_GetImageBase       000000018002d564     libvcruntime:risctrnsctrl.obj
 0004:00000570       $pdata$_GetThrowImageBase  000000018002d570     libvcruntime:risctrnsctrl.obj
 0004:0000057c       $pdata$_SetImageBase       000000018002d57c     libvcruntime:risctrnsctrl.obj
 0004:00000588       $pdata$_SetThrowImageBase  000000018002d588     libvcruntime:risctrnsctrl.obj
 0004:00000594       $pdata$__CxxFrameHandler3  000000018002d594     libvcruntime:risctrnsctrl.obj
 0004:000005a0       $pdata$__DestructExceptionObject 000000018002d5a0     libvcruntime:ehhelpers.obj
 0004:000005ac       $pdata$_IsExceptionObjectToBeDestroyed 000000018002d5ac     libvcruntime:ehhelpers.obj
 0004:000005b8       $pdata$__FrameUnwindFilter 000000018002d5b8     libvcruntime:ehhelpers.obj
 0004:000005c4       $pdata$__std_terminate     000000018002d5c4     libvcruntime:ehhelpers.obj
 0004:000005d0       $pdata$__std_exception_copy 000000018002d5d0     libvcruntime:std_exception.obj
 0004:000005dc       $pdata$__std_exception_destroy 000000018002d5dc     libvcruntime:std_exception.obj
 0004:000005e8       $pdata$_CxxThrowException  000000018002d5e8     libvcruntime:throw.obj
 0004:000005f4       $pdata$__vcrt_initialize   000000018002d5f4     libvcruntime:initialization.obj
 0004:00000600       $pdata$__vcrt_thread_attach 000000018002d600     libvcruntime:initialization.obj
 0004:0000060c       $pdata$__vcrt_thread_detach 000000018002d60c     libvcruntime:initialization.obj
 0004:00000618       $pdata$__vcrt_uninitialize 000000018002d618     libvcruntime:initialization.obj
 0004:00000624       $pdata$__vcrt_uninitialize_critical 000000018002d624     libvcruntime:initialization.obj
 0004:00000630       $pdata$__C_specific_handler 000000018002d630     libvcruntime:riscchandler.obj
 0004:00000654       $pdata$__std_type_info_destroy_list 000000018002d654     libvcruntime:std_type_info.obj
 0004:00000660       $pdata$__vcrt_freefls      000000018002d660     libvcruntime:per_thread_data.obj
 0004:0000066c       $pdata$__vcrt_freeptd      000000018002d66c     libvcruntime:per_thread_data.obj
 0004:00000678       $pdata$__vcrt_getptd       000000018002d678     libvcruntime:per_thread_data.obj
 0004:00000684       $pdata$__vcrt_getptd_noexit 000000018002d684     libvcruntime:per_thread_data.obj
 0004:00000690       $pdata$__vcrt_initialize_ptd 000000018002d690     libvcruntime:per_thread_data.obj
 0004:0000069c       $pdata$__vcrt_uninitialize_ptd 000000018002d69c     libvcruntime:per_thread_data.obj
 0004:000006a8       $pdata$?GetCurrentState@__FrameHandler3@@SAHPEA_KPEAU_xDISPATCHER_CONTEXT@@PEBU_s_FuncInfo@@@Z 000000018002d6a8     libvcruntime:ehstate.obj
 0004:000006b4       $pdata$?GetUnwindTryBlock@__FrameHandler3@@SAHPEA_KPEAU_xDISPATCHER_CONTEXT@@PEBU_s_FuncInfo@@@Z 000000018002d6b4     libvcruntime:ehstate.obj
 0004:000006c0       $pdata$?SetUnwindTryBlock@__FrameHandler3@@SAXPEA_KPEAU_xDISPATCHER_CONTEXT@@PEBU_s_FuncInfo@@H@Z 000000018002d6c0     libvcruntime:ehstate.obj
 0004:000006cc       $pdata$?StateFromIp@__FrameHandler3@@SAHPEBU_s_FuncInfo@@PEAU_xDISPATCHER_CONTEXT@@_K@Z 000000018002d6cc     libvcruntime:ehstate.obj
 0004:000006d8       $pdata$??$BuildCatchObjectHelperInternal@V__FrameHandler3@@@@YAHPEAUEHExceptionRecord@@PEAXPEBU_s_HandlerType@@PEBU_s_CatchableType@@@Z 000000018002d6d8     libvcruntime:frame.obj
 0004:000006e4       $pdata$??$BuildCatchObjectInternal@V__FrameHandler3@@@@YAXPEAUEHExceptionRecord@@PEAXPEBU_s_HandlerType@@PEBU_s_CatchableType@@@Z 000000018002d6e4     libvcruntime:frame.obj
 0004:000006f0       $pdata$??$CatchIt@V__FrameHandler3@@@@YAXPEAUEHExceptionRecord@@PEA_KPEAU_CONTEXT@@PEAU_xDISPATCHER_CONTEXT@@PEBU_s_FuncInfo@@PEBU_s_HandlerType@@PEBU_s_CatchableType@@PEBU_s_TryBlockMapEntry@@H1EE@Z 000000018002d6f0     libvcruntime:frame.obj
 0004:000006fc       $pdata$??$FindHandler@V__FrameHandler3@@@@YAXPEAUEHExceptionRecord@@PEA_KPEAU_CONTEXT@@PEAU_xDISPATCHER_CONTEXT@@PEBU_s_FuncInfo@@EH1@Z 000000018002d6fc     libvcruntime:frame.obj
 0004:00000708       $pdata$??$FindHandlerForForeignException@V__FrameHandler3@@@@YAXPEAUEHExceptionRecord@@PEA_KPEAU_CONTEXT@@PEAU_xDISPATCHER_CONTEXT@@PEBU_s_FuncInfo@@HH1@Z 000000018002d708     libvcruntime:frame.obj
 0004:00000714       $pdata$??$TypeMatchHelper@V__FrameHandler3@@@@YAHPEBU_s_HandlerType@@PEBU_s_CatchableType@@PEBU_s_ThrowInfo@@@Z 000000018002d714     libvcruntime:frame.obj
 0004:00000720       $pdata$??$__InternalCxxFrameHandler@V__FrameHandler3@@@@YA?AW4_EXCEPTION_DISPOSITION@@PEAUEHExceptionRecord@@PEA_KPEAU_CONTEXT@@PEAU_xDISPATCHER_CONTEXT@@PEBU_s_FuncInfo@@H1E@Z 000000018002d720     libvcruntime:frame.obj
 0004:0000072c       $pdata$??0bad_exception@std@@QEAA@AEBV01@@Z 000000018002d72c     libvcruntime:frame.obj
 0004:00000738       $pdata$?CxxCallCatchBlock@__FrameHandler3@@SAPEAXPEAU_EXCEPTION_RECORD@@@Z 000000018002d738     libvcruntime:frame.obj
 0004:00000744       $pdata$?ExFilterRethrow@@YAHPEAU_EXCEPTION_POINTERS@@PEAUEHExceptionRecord@@PEAH@Z 000000018002d744     libvcruntime:frame.obj
 0004:00000750       $pdata$?FrameUnwindToState@__FrameHandler3@@SAXPEA_KPEAU_xDISPATCHER_CONTEXT@@PEBU_s_FuncInfo@@H@Z 000000018002d750     libvcruntime:frame.obj
 0004:0000075c       $pdata$?GetHandlerSearchState@__FrameHandler3@@SAHPEA_KPEAU_xDISPATCHER_CONTEXT@@PEBU_s_FuncInfo@@@Z 000000018002d75c     libvcruntime:frame.obj
 0004:00000768       $pdata$?IsInExceptionSpec@@YAEPEAUEHExceptionRecord@@PEBU_s_ESTypeList@@@Z 000000018002d768     libvcruntime:frame.obj
 0004:00000774       $pdata$?Is_bad_exception_allowed@@YAEPEBU_s_ESTypeList@@@Z 000000018002d774     libvcruntime:frame.obj
 0004:00000780       $pdata$__vcrt_initialize_locks 000000018002d780     libvcruntime:locks.obj
 0004:0000078c       $pdata$__vcrt_uninitialize_locks 000000018002d78c     libvcruntime:locks.obj
 0004:00000798       $pdata$?try_get_function@@YAPEAXW4function_id@?A0xbfd18cd1@@QEBDQEBW4module_id@2@2@Z 000000018002d798     libvcruntime:winapi_downlevel.obj
 0004:000007a4       $pdata$__vcrt_FlsAlloc     000000018002d7a4     libvcruntime:winapi_downlevel.obj
 0004:000007b0       $pdata$__vcrt_FlsFree      000000018002d7b0     libvcruntime:winapi_downlevel.obj
 0004:000007bc       $pdata$__vcrt_FlsGetValue  000000018002d7bc     libvcruntime:winapi_downlevel.obj
 0004:000007c8       $pdata$__vcrt_FlsSetValue  000000018002d7c8     libvcruntime:winapi_downlevel.obj
 0004:000007d4       $pdata$__vcrt_InitializeCriticalSectionEx 000000018002d7d4     libvcruntime:winapi_downlevel.obj
 0004:000007e0       $pdata$__vcrt_initialize_winapi_thunks 000000018002d7e0     libvcruntime:winapi_downlevel.obj
 0004:000007ec       $pdata$__vcrt_uninitialize_winapi_thunks 000000018002d7ec     libvcruntime:winapi_downlevel.obj
 0004:0000084c       $pdata$??$common_assert_to_message_box@_W@@YAXQEB_W0IQEAX@Z 000000018002d84c     libucrt:assert.obj
 0004:00000858       $pdata$??$common_assert_to_message_box_build_string@_W@@YAXQEA_W_KQEB_W2IQEAX@Z 000000018002d858     libucrt:assert.obj
 0004:00000864       $pdata$??$common_assert_to_stderr@_W@@YAXQEB_W0I@Z 000000018002d864     libucrt:assert.obj
 0004:00000870       $pdata$_wassert            000000018002d870     libucrt:assert.obj
 0004:0000087c       $pdata$fwprintf            000000018002d87c     libucrt:assert.obj
 0004:00000888       $pdata$swprintf            000000018002d888     libucrt:assert.obj
 0004:00000894       $pdata$__acrt_call_reportfault 000000018002d894     libucrt:invalid_parameter.obj
 0004:000008a0       $pdata$_invalid_parameter  000000018002d8a0     libucrt:invalid_parameter.obj
 0004:000008ac       $pdata$_invalid_parameter_noinfo 000000018002d8ac     libucrt:invalid_parameter.obj
 0004:000008b8       $pdata$_invalid_parameter_noinfo_noreturn 000000018002d8b8     libucrt:invalid_parameter.obj
 0004:000008c4       $pdata$_invoke_watson      000000018002d8c4     libucrt:invalid_parameter.obj
 0004:000008d0       $pdata$??0_LocaleUpdate@@QEAA@QEAU__crt_locale_pointers@@@Z 000000018002d8d0     libucrt:stricmp.obj
 0004:000008dc       $pdata$_stricmp            000000018002d8dc     libucrt:stricmp.obj
 0004:000008e8       $pdata$_stricmp_l          000000018002d8e8     libucrt:stricmp.obj
 0004:000008f4       $pdata$??$?RV<lambda_0d412022a4b28cc8a401ea49574e8ae6>@@AEAV<lambda_a775ed57af18ba8e4d5dc780aa9068fe>@@V<lambda_975a71a6baa488a08f4e15f6b0339b9e>@@@?$__crt_seh_guarded_call@H@@QEAAH$$QEAV<lambda_0d412022a4b28cc8a401ea49574e8ae6>@@AEAV<lambda_a775ed57af18ba8e4d5dc780aa9068fe>@@$$QEAV<lambda_975a71a6baa488a08f4e15f6b0339b9e>@@@Z 000000018002d8f4     libucrt:output.obj
 0004:00000900       $pdata$??$?RV<lambda_a62c933ada0517137acf5807a1eeac1f>@@AEAV<lambda_a31071773b9a94e445cbd5d04ef99106>@@V<lambda_56065050dbf3ada7e59a83db45153de3>@@@?$__crt_seh_guarded_call@H@@QEAAH$$QEAV<lambda_a62c933ada0517137acf5807a1eeac1f>@@AEAV<lambda_a31071773b9a94e445cbd5d04ef99106>@@$$QEAV<lambda_56065050dbf3ada7e59a83db45153de3>@@@Z 000000018002d900     libucrt:output.obj
 0004:0000090c       $pdata$??$common_vsprintf@Vstandard_base@__crt_stdio_output@@_W@@YAH_KQEA_W0QEB_WQEAU__crt_locale_pointers@@QEAD@Z 000000018002d90c     libucrt:output.obj
 0004:00000918       $pdata$??$ensure_buffer_is_big_enough@D@formatting_buffer@__crt_stdio_output@@QEAA_N_K@Z 000000018002d918     libucrt:output.obj
 0004:00000924       $pdata$??$ensure_buffer_is_big_enough@_W@formatting_buffer@__crt_stdio_output@@QEAA_N_K@Z 000000018002d924     libucrt:output.obj
 0004:00000930       $pdata$??$type_case_integer_parse_into_buffer@I@?$output_processor@DV?$stream_output_adapter@D@__crt_stdio_output@@V?$standard_base@DV?$stream_output_adapter@D@__crt_stdio_output@@@2@@__crt_stdio_output@@AEAAXII_N@Z 000000018002d930     libucrt:output.obj
 0004:0000093c       $pdata$??$type_case_integer_parse_into_buffer@I@?$output_processor@_WV?$string_output_adapter@_W@__crt_stdio_output@@V?$standard_base@_WV?$string_output_adapter@_W@__crt_stdio_output@@@2@@__crt_stdio_output@@AEAAXII_N@Z 000000018002d93c     libucrt:output.obj
 0004:0000093c       $pdata$??$type_case_integer_parse_into_buffer@I@?$output_processor@_WV?$stream_output_adapter@_W@__crt_stdio_output@@V?$standard_base@_WV?$stream_output_adapter@_W@__crt_stdio_output@@@2@@__crt_stdio_output@@AEAAXII_N@Z 000000018002d93c     libucrt:output.obj
 0004:00000948       $pdata$??$type_case_integer_parse_into_buffer@_K@?$output_processor@DV?$stream_output_adapter@D@__crt_stdio_output@@V?$standard_base@DV?$stream_output_adapter@D@__crt_stdio_output@@@2@@__crt_stdio_output@@AEAAX_KI_N@Z 000000018002d948     libucrt:output.obj
 0004:00000954       $pdata$??$type_case_integer_parse_into_buffer@_K@?$output_processor@_WV?$stream_output_adapter@_W@__crt_stdio_output@@V?$standard_base@_WV?$stream_output_adapter@_W@__crt_stdio_output@@@2@@__crt_stdio_output@@AEAAX_KI_N@Z 000000018002d954     libucrt:output.obj
 0004:00000954       $pdata$??$type_case_integer_parse_into_buffer@_K@?$output_processor@_WV?$string_output_adapter@_W@__crt_stdio_output@@V?$standard_base@_WV?$string_output_adapter@_W@__crt_stdio_output@@@2@@__crt_stdio_output@@AEAAX_KI_N@Z 000000018002d954     libucrt:output.obj
 0004:00000960       $pdata$??$write_multiple_characters@V?$stream_output_adapter@D@__crt_stdio_output@@D@__crt_stdio_output@@YAXAEBV?$stream_output_adapter@D@0@DHQEAH@Z 000000018002d960     libucrt:output.obj
 0004:0000096c       $pdata$??$write_multiple_characters@V?$stream_output_adapter@_W@__crt_stdio_output@@D@__crt_stdio_output@@YAXAEBV?$stream_output_adapter@_W@0@DHQEAH@Z 000000018002d96c     libucrt:output.obj
 0004:00000978       $pdata$??$write_multiple_characters@V?$string_output_adapter@_W@__crt_stdio_output@@D@__crt_stdio_output@@YAXAEBV?$string_output_adapter@_W@0@DHQEAH@Z 000000018002d978     libucrt:output.obj
 0004:00000984       $pdata$??R<lambda_a31071773b9a94e445cbd5d04ef99106>@@QEBAHXZ 000000018002d984     libucrt:output.obj
 0004:00000990       $pdata$??R<lambda_a775ed57af18ba8e4d5dc780aa9068fe>@@QEBAHXZ 000000018002d990     libucrt:output.obj
 0004:0000099c       $pdata$?force_decimal_point@__crt_stdio_output@@YAXPEADQEAU__crt_locale_pointers@@@Z 000000018002d99c     libucrt:output.obj
 0004:000009a8       $pdata$?parse_int_from_format_string@?$output_processor@DV?$stream_output_adapter@D@__crt_stdio_output@@V?$standard_base@DV?$stream_output_adapter@D@__crt_stdio_output@@@2@@__crt_stdio_output@@AEAA_NQEAH@Z 000000018002d9a8     libucrt:output.obj
 0004:000009b4       $pdata$?parse_int_from_format_string@?$output_processor@_WV?$string_output_adapter@_W@__crt_stdio_output@@V?$standard_base@_WV?$string_output_adapter@_W@__crt_stdio_output@@@2@@__crt_stdio_output@@AEAA_NQEAH@Z 000000018002d9b4     libucrt:output.obj
 0004:000009b4       $pdata$?parse_int_from_format_string@?$output_processor@_WV?$stream_output_adapter@_W@__crt_stdio_output@@V?$standard_base@_WV?$stream_output_adapter@_W@__crt_stdio_output@@@2@@__crt_stdio_output@@AEAA_NQEAH@Z 000000018002d9b4     libucrt:output.obj
 0004:000009c0       $pdata$?process@?$output_processor@DV?$stream_output_adapter@D@__crt_stdio_output@@V?$standard_base@DV?$stream_output_adapter@D@__crt_stdio_output@@@2@@__crt_stdio_output@@QEAAHXZ 000000018002d9c0     libucrt:output.obj
 0004:000009cc       $pdata$?process@?$output_processor@_WV?$stream_output_adapter@_W@__crt_stdio_output@@V?$standard_base@_WV?$stream_output_adapter@_W@__crt_stdio_output@@@2@@__crt_stdio_output@@QEAAHXZ 000000018002d9cc     libucrt:output.obj
 0004:000009d8       $pdata$?process@?$output_processor@_WV?$string_output_adapter@_W@__crt_stdio_output@@V?$standard_base@_WV?$string_output_adapter@_W@__crt_stdio_output@@@2@@__crt_stdio_output@@QEAAHXZ 000000018002d9d8     libucrt:output.obj
 0004:000009e4       $pdata$?state_case_normal@?$output_processor@DV?$stream_output_adapter@D@__crt_stdio_output@@V?$standard_base@DV?$stream_output_adapter@D@__crt_stdio_output@@@2@@__crt_stdio_output@@AEAA_NXZ 000000018002d9e4     libucrt:output.obj
 0004:000009f0       $pdata$?state_case_normal_tchar@?$output_processor@DV?$stream_output_adapter@D@__crt_stdio_output@@V?$standard_base@DV?$stream_output_adapter@D@__crt_stdio_output@@@2@@__crt_stdio_output@@AEAA_ND@Z 000000018002d9f0     libucrt:output.obj
 0004:000009fc       $pdata$?state_case_size@?$output_processor@DV?$stream_output_adapter@D@__crt_stdio_output@@V?$standard_base@DV?$stream_output_adapter@D@__crt_stdio_output@@@2@@__crt_stdio_output@@AEAA_NXZ 000000018002d9fc     libucrt:output.obj
 0004:00000a08       $pdata$?state_case_size@?$output_processor@_WV?$stream_output_adapter@_W@__crt_stdio_output@@V?$standard_base@_WV?$stream_output_adapter@_W@__crt_stdio_output@@@2@@__crt_stdio_output@@AEAA_NXZ 000000018002da08     libucrt:output.obj
 0004:00000a14       $pdata$?state_case_size@?$output_processor@_WV?$string_output_adapter@_W@__crt_stdio_output@@V?$standard_base@_WV?$string_output_adapter@_W@__crt_stdio_output@@@2@@__crt_stdio_output@@AEAA_NXZ 000000018002da14     libucrt:output.obj
 0004:00000a20       $pdata$?state_case_type@?$output_processor@DV?$stream_output_adapter@D@__crt_stdio_output@@V?$standard_base@DV?$stream_output_adapter@D@__crt_stdio_output@@@2@@__crt_stdio_output@@AEAA_NXZ 000000018002da20     libucrt:output.obj
 0004:00000a2c       $pdata$?state_case_type@?$output_processor@_WV?$stream_output_adapter@_W@__crt_stdio_output@@V?$standard_base@_WV?$stream_output_adapter@_W@__crt_stdio_output@@@2@@__crt_stdio_output@@AEAA_NXZ 000000018002da2c     libucrt:output.obj
 0004:00000a38       $pdata$?state_case_type@?$output_processor@_WV?$string_output_adapter@_W@__crt_stdio_output@@V?$standard_base@_WV?$string_output_adapter@_W@__crt_stdio_output@@@2@@__crt_stdio_output@@AEAA_NXZ 000000018002da38     libucrt:output.obj
 0004:00000a44       $pdata$?type_case_Z@?$output_processor@_WV?$string_output_adapter@_W@__crt_stdio_output@@V?$standard_base@_WV?$string_output_adapter@_W@__crt_stdio_output@@@2@@__crt_stdio_output@@AEAA_NXZ 000000018002da44     libucrt:output.obj
 0004:00000a44       $pdata$?type_case_Z@?$output_processor@_WV?$stream_output_adapter@_W@__crt_stdio_output@@V?$standard_base@_WV?$stream_output_adapter@_W@__crt_stdio_output@@@2@@__crt_stdio_output@@AEAA_NXZ 000000018002da44     libucrt:output.obj
 0004:00000a50       $pdata$?type_case_a@?$output_processor@DV?$stream_output_adapter@D@__crt_stdio_output@@V?$standard_base@DV?$stream_output_adapter@D@__crt_stdio_output@@@2@@__crt_stdio_output@@AEAA_NXZ 000000018002da50     libucrt:output.obj
 0004:00000a5c       $pdata$?type_case_a@?$output_processor@_WV?$string_output_adapter@_W@__crt_stdio_output@@V?$standard_base@_WV?$string_output_adapter@_W@__crt_stdio_output@@@2@@__crt_stdio_output@@AEAA_NXZ 000000018002da5c     libucrt:output.obj
 0004:00000a5c       $pdata$?type_case_a@?$output_processor@_WV?$stream_output_adapter@_W@__crt_stdio_output@@V?$standard_base@_WV?$stream_output_adapter@_W@__crt_stdio_output@@@2@@__crt_stdio_output@@AEAA_NXZ 000000018002da5c     libucrt:output.obj
 0004:00000a68       $pdata$?type_case_c_tchar@?$output_processor@DV?$stream_output_adapter@D@__crt_stdio_output@@V?$standard_base@DV?$stream_output_adapter@D@__crt_stdio_output@@@2@@__crt_stdio_output@@AEAA_ND@Z 000000018002da68     libucrt:output.obj
 0004:00000a74       $pdata$?type_case_c_tchar@?$output_processor@_WV?$stream_output_adapter@_W@__crt_stdio_output@@V?$standard_base@_WV?$stream_output_adapter@_W@__crt_stdio_output@@@2@@__crt_stdio_output@@AEAA_N_W@Z 000000018002da74     libucrt:output.obj
 0004:00000a74       $pdata$?type_case_c_tchar@?$output_processor@_WV?$string_output_adapter@_W@__crt_stdio_output@@V?$standard_base@_WV?$string_output_adapter@_W@__crt_stdio_output@@@2@@__crt_stdio_output@@AEAA_N_W@Z 000000018002da74     libucrt:output.obj
 0004:00000a80       $pdata$?type_case_integer@?$output_processor@DV?$stream_output_adapter@D@__crt_stdio_output@@V?$standard_base@DV?$stream_output_adapter@D@__crt_stdio_output@@@2@@__crt_stdio_output@@AEAA_NI_N@Z 000000018002da80     libucrt:output.obj
 0004:00000a8c       $pdata$?type_case_integer@?$output_processor@_WV?$stream_output_adapter@_W@__crt_stdio_output@@V?$standard_base@_WV?$stream_output_adapter@_W@__crt_stdio_output@@@2@@__crt_stdio_output@@AEAA_NI_N@Z 000000018002da8c     libucrt:output.obj
 0004:00000a8c       $pdata$?type_case_integer@?$output_processor@_WV?$string_output_adapter@_W@__crt_stdio_output@@V?$standard_base@_WV?$string_output_adapter@_W@__crt_stdio_output@@@2@@__crt_stdio_output@@AEAA_NI_N@Z 000000018002da8c     libucrt:output.obj
 0004:00000a98       $pdata$?type_case_n@?$output_processor@DV?$stream_output_adapter@D@__crt_stdio_output@@V?$standard_base@DV?$stream_output_adapter@D@__crt_stdio_output@@@2@@__crt_stdio_output@@AEAA_NXZ 000000018002da98     libucrt:output.obj
 0004:00000a98       $pdata$?type_case_n@?$output_processor@_WV?$string_output_adapter@_W@__crt_stdio_output@@V?$standard_base@_WV?$string_output_adapter@_W@__crt_stdio_output@@@2@@__crt_stdio_output@@AEAA_NXZ 000000018002da98     libucrt:output.obj
 0004:00000a98       $pdata$?type_case_n@?$output_processor@_WV?$stream_output_adapter@_W@__crt_stdio_output@@V?$standard_base@_WV?$stream_output_adapter@_W@__crt_stdio_output@@@2@@__crt_stdio_output@@AEAA_NXZ 000000018002da98     libucrt:output.obj
 0004:00000aa4       $pdata$?type_case_s@?$output_processor@DV?$stream_output_adapter@D@__crt_stdio_output@@V?$standard_base@DV?$stream_output_adapter@D@__crt_stdio_output@@@2@@__crt_stdio_output@@AEAA_NXZ 000000018002daa4     libucrt:output.obj
 0004:00000ab0       $pdata$?type_case_s@?$output_processor@_WV?$stream_output_adapter@_W@__crt_stdio_output@@V?$standard_base@_WV?$stream_output_adapter@_W@__crt_stdio_output@@@2@@__crt_stdio_output@@AEAA_NXZ 000000018002dab0     libucrt:output.obj
 0004:00000ab0       $pdata$?type_case_s@?$output_processor@_WV?$string_output_adapter@_W@__crt_stdio_output@@V?$standard_base@_WV?$string_output_adapter@_W@__crt_stdio_output@@@2@@__crt_stdio_output@@AEAA_NXZ 000000018002dab0     libucrt:output.obj
 0004:00000abc       $pdata$?validate_stream_is_ansi_if_required@?$__acrt_stdio_char_traits@D@@SA_NQEAU_iobuf@@@Z 000000018002dabc     libucrt:output.obj
 0004:00000ac8       $pdata$?write_stored_string_tchar@?$output_processor@DV?$stream_output_adapter@D@__crt_stdio_output@@V?$standard_base@DV?$stream_output_adapter@D@__crt_stdio_output@@@2@@__crt_stdio_output@@AEAA_ND@Z 000000018002dac8     libucrt:output.obj
 0004:00000ad4       $pdata$?write_stored_string_tchar@?$output_processor@_WV?$stream_output_adapter@_W@__crt_stdio_output@@V?$standard_base@_WV?$stream_output_adapter@_W@__crt_stdio_output@@@2@@__crt_stdio_output@@AEAA_N_W@Z 000000018002dad4     libucrt:output.obj
 0004:00000ae0       $pdata$?write_stored_string_tchar@?$output_processor@_WV?$string_output_adapter@_W@__crt_stdio_output@@V?$standard_base@_WV?$string_output_adapter@_W@__crt_stdio_output@@@2@@__crt_stdio_output@@AEAA_N_W@Z 000000018002dae0     libucrt:output.obj
 0004:00000aec       $pdata$?write_string@?$string_output_adapter@_W@__crt_stdio_output@@QEBAXQEB_WHQEAHAEAV__crt_deferred_errno_cache@@@Z 000000018002daec     libucrt:output.obj
 0004:00000af8       $pdata$?write_string_impl@?$output_adapter_common@DV?$stream_output_adapter@D@__crt_stdio_output@@@__crt_stdio_output@@IEBAXQEBDHQEAHAEAV__crt_deferred_errno_cache@@@Z 000000018002daf8     libucrt:output.obj
 0004:00000b04       $pdata$?write_string_impl@?$output_adapter_common@_WV?$stream_output_adapter@_W@__crt_stdio_output@@@__crt_stdio_output@@IEBAXQEB_WHQEAHAEAV__crt_deferred_errno_cache@@@Z 000000018002db04     libucrt:output.obj
 0004:00000b10       $pdata$__stdio_common_vfprintf 000000018002db10     libucrt:output.obj
 0004:00000b1c       $pdata$__stdio_common_vfwprintf 000000018002db1c     libucrt:output.obj
 0004:00000b28       $pdata$??$?RV<lambda_bdbcead8b570fa3d5ec6d9679862a6e5>@@AEAV<lambda_96f4279ff90247a4c5c5d9824f56f8c1>@@V<lambda_4606be27f17b5e5579e09050fab91818>@@@?$__crt_seh_guarded_call@_K@@QEAA_K$$QEAV<lambda_bdbcead8b570fa3d5ec6d9679862a6e5>@@AEAV<lambda_96f4279ff90247a4c5c5d9824f56f8c1>@@$$QEAV<lambda_4606be27f17b5e5579e09050fab91818>@@@Z 000000018002db28     libucrt:fwrite.obj
 0004:00000b34       $pdata$??R<lambda_96f4279ff90247a4c5c5d9824f56f8c1>@@QEBA_KXZ 000000018002db34     libucrt:fwrite.obj
 0004:00000b40       $pdata$_fwrite_nolock      000000018002db40     libucrt:fwrite.obj
 0004:00000b4c       $pdata$fwrite              000000018002db4c     libucrt:fwrite.obj
 0004:00000b58       $pdata$_callnewh           000000018002db58     libucrt:new_handler.obj
 0004:00000b64       $pdata$_query_new_handler  000000018002db64     libucrt:new_handler.obj
 0004:00000b70       $pdata$_seh_filter_exe     000000018002db70     libucrt:exception_filter.obj
 0004:00000b7c       $pdata$??$?RV<lambda_d80eeec6fff315bfe5c115232f3240e3>@@AEAV<lambda_6e4b09c48022b2350581041d5f6b0c4c>@@V<lambda_2358e3775559c9db80273638284d5e45>@@@?$__crt_seh_guarded_call@X@@QEAAX$$QEAV<lambda_d80eeec6fff315bfe5c115232f3240e3>@@AEAV<lambda_6e4b09c48022b2350581041d5f6b0c4c>@@$$QEAV<lambda_2358e3775559c9db80273638284d5e45>@@@Z 000000018002db7c     libucrt:exit.obj
 0004:00000b88       $pdata$??R<lambda_6e4b09c48022b2350581041d5f6b0c4c>@@QEBA@XZ 000000018002db88     libucrt:exit.obj
 0004:00000b94       $pdata$?common_exit@@YAXHW4_crt_exit_cleanup_mode@@W4_crt_exit_return_mode@@@Z 000000018002db94     libucrt:exit.obj
 0004:00000ba0       $pdata$?exit_or_terminate_process@@YAXI@Z 000000018002dba0     libucrt:exit.obj
 0004:00000bac       $pdata$?try_cor_exit_process@@YAXI@Z 000000018002dbac     libucrt:exit.obj
 0004:00000bb8       $pdata$??$parse_command_line@D@@YAXPEADPEAPEAD0PEA_K2@Z 000000018002dbb8     libucrt:argv_parsing.obj
 0004:00000bc4       $pdata$__acrt_allocate_buffer_for_argv 000000018002dbc4     libucrt:argv_parsing.obj
 0004:00000bd0       $pdata$_configure_narrow_argv 000000018002dbd0     libucrt:argv_parsing.obj
 0004:00000bdc       $pdata$??$common_initialize_environment_nolock@D@@YAHXZ 000000018002dbdc     libucrt:environment_initialization.obj
 0004:00000be8       $pdata$??$create_environment@D@@YAQEAPEADQEAD@Z 000000018002dbe8     libucrt:environment_initialization.obj
 0004:00000bf4       $pdata$??$free_environment@D@@YAXQEAPEAD@Z 000000018002dbf4     libucrt:environment_initialization.obj
 0004:00000bf4       $pdata$??$free_environment@_W@@YAXQEAPEA_W@Z 000000018002dbf4     libucrt:environment_initialization.obj
 0004:00000c00       $pdata$??$uninitialize_environment_internal@D@@YAXAEAPEAPEAD@Z 000000018002dc00     libucrt:environment_initialization.obj
 0004:00000c0c       $pdata$??$uninitialize_environment_internal@_W@@YAXAEAPEAPEA_W@Z 000000018002dc0c     libucrt:environment_initialization.obj
 0004:00000c18       $pdata$__dcrt_uninitialize_environments_nolock 000000018002dc18     libucrt:environment_initialization.obj
 0004:00000c24       $pdata$??$?RV<lambda_638799b9deba96c50f710eeac98168cd>@@AEAV<lambda_22ebabd17bc4fa466a2aca6d8deb888d>@@V<lambda_a6f7d7db0129f75315ebf26d50c089f1>@@@?$__crt_seh_guarded_call@H@@QEAAH$$QEAV<lambda_638799b9deba96c50f710eeac98168cd>@@AEAV<lambda_22ebabd17bc4fa466a2aca6d8deb888d>@@$$QEAV<lambda_a6f7d7db0129f75315ebf26d50c089f1>@@@Z 000000018002dc24     libucrt:onexit.obj
 0004:00000c30       $pdata$??$?RV<lambda_7777bce6b2f8c936911f934f8298dc43>@@AEAV<lambda_f03950bc5685219e0bcd2087efbe011e>@@V<lambda_3883c3dff614d5e0c5f61bb1ac94921c>@@@?$__crt_seh_guarded_call@H@@QEAAH$$QEAV<lambda_7777bce6b2f8c936911f934f8298dc43>@@AEAV<lambda_f03950bc5685219e0bcd2087efbe011e>@@$$QEAV<lambda_3883c3dff614d5e0c5f61bb1ac94921c>@@@Z 000000018002dc30     libucrt:onexit.obj
 0004:00000c3c       $pdata$??R<lambda_22ebabd17bc4fa466a2aca6d8deb888d>@@QEBAHXZ 000000018002dc3c     libucrt:onexit.obj
 0004:00000c48       $pdata$??R<lambda_f03950bc5685219e0bcd2087efbe011e>@@QEBAHXZ 000000018002dc48     libucrt:onexit.obj
 0004:00000c54       $pdata$_execute_onexit_table 000000018002dc54     libucrt:onexit.obj
 0004:00000c60       $pdata$_register_onexit_function 000000018002dc60     libucrt:onexit.obj
 0004:00000c6c       $pdata$initialize_c        000000018002dc6c     libucrt:initialization.obj
 0004:00000c78       $pdata$uninitialize_environment 000000018002dc78     libucrt:initialization.obj
 0004:00000c84       $pdata$initialize_pointers 000000018002dc84     libucrt:initialization.obj
 0004:00000c90       $pdata$uninitialize_allocated_memory 000000018002dc90     libucrt:initialization.obj
 0004:00000c9c       $pdata$uninitialize_allocated_io_buffers 000000018002dc9c     libucrt:initialization.obj
 0004:00000ca8       $pdata$__acrt_thread_attach 000000018002dca8     libucrt:initialization.obj
 0004:00000cb4       $pdata$__acrt_thread_detach 000000018002dcb4     libucrt:initialization.obj
 0004:00000cc0       $pdata$__acrt_uninitialize 000000018002dcc0     libucrt:initialization.obj
 0004:00000ccc       $pdata$__acrt_uninitialize_critical 000000018002dccc     libucrt:initialization.obj
 0004:00000cd8       $pdata$_initterm           000000018002dcd8     libucrt:initterm.obj
 0004:00000ce4       $pdata$_initterm_e         000000018002dce4     libucrt:initterm.obj
 0004:00000cf0       $pdata$terminate           000000018002dcf0     libucrt:terminate.obj
 0004:00000cfc       $pdata$strcpy_s            000000018002dcfc     libucrt:strcpy_s.obj
 0004:00000d08       $pdata$abort               000000018002dd08     libucrt:abort.obj
 0004:00000d14       $pdata$??$parse_integer@KV?$c_string_character_source@D@__crt_strtox@@@__crt_strtox@@YAKQEAU__crt_locale_pointers@@V?$c_string_character_source@D@0@H_N@Z 000000018002dd14     libucrt:atox.obj
 0004:00000d20       $pdata$??$parse_integer@KV?$c_string_character_source@_W@__crt_strtox@@@__crt_strtox@@YAKQEAU__crt_locale_pointers@@V?$c_string_character_source@_W@0@H_N@Z 000000018002dd20     libucrt:atox.obj
 0004:00000d38       $pdata$_calloc_base        000000018002dd38     libucrt:calloc_base.obj
 0004:00000d44       $pdata$_realloc_base       000000018002dd44     libucrt:realloc_base.obj
 0004:00000d50       $pdata$_free_base          000000018002dd50     libucrt:free_base.obj
 0004:00000d5c       $pdata$__acrt_errno_map_os_error 000000018002dd5c     libucrt:errno.obj
 0004:00000d68       $pdata$__doserrno          000000018002dd68     libucrt:errno.obj
 0004:00000d74       $pdata$_errno              000000018002dd74     libucrt:errno.obj
 0004:00000d80       $pdata$??$common_xtox@K_W@@YAHKQEA_W_KI_N@Z 000000018002dd80     libucrt:xtoa.obj
 0004:00000d8c       $pdata$??$common_xtox_s@K_W@@YAHKQEA_W_KI_N@Z 000000018002dd8c     libucrt:xtoa.obj
 0004:00000d98       $pdata$_itow_s             000000018002dd98     libucrt:xtoa.obj
 0004:00000da4       $pdata$_set_error_mode     000000018002dda4     libucrt:set_error_mode.obj
 0004:00000db0       $pdata$wcscat_s            000000018002ddb0     libucrt:wcscat_s.obj
 0004:00000dbc       $pdata$wcscpy_s            000000018002ddbc     libucrt:wcscpy_s.obj
 0004:00000dc8       $pdata$wcsncat_s           000000018002ddc8     libucrt:wcsncat_s.obj
 0004:00000dd4       $pdata$??$__acrt_wcs_to_mbs_cp@U__crt_win32_buffer_no_resizing@@@@YAHQEB_WAEAV?$__crt_win32_buffer@DU__crt_win32_buffer_no_resizing@@@@I@Z 000000018002ddd4     libucrt:getmodulefilenamea.obj
 0004:00000de0       $pdata$__acrt_GetModuleFileNameA 000000018002dde0     libucrt:getmodulefilenamea.obj
 0004:00000dec       $pdata$__acrt_show_wide_message_box 000000018002ddec     libucrt:crtmbox.obj
 0004:00000df8       $pdata$__acrt_initialize_stdio 000000018002ddf8     libucrt:_file.obj
 0004:00000e04       $pdata$__acrt_uninitialize_stdio 000000018002de04     libucrt:_file.obj
 0004:00000e10       $pdata$??$?RV<lambda_842d9ff0dc9ef11c61343bbaebe7f885>@@AEAV<lambda_c5860995281e5c4ce005b3de8f5874ee>@@V<lambda_d90129c13df834fdcbf8d2b88dafcf2d>@@@?$__crt_seh_guarded_call@X@@QEAAX$$QEAV<lambda_842d9ff0dc9ef11c61343bbaebe7f885>@@AEAV<lambda_c5860995281e5c4ce005b3de8f5874ee>@@$$QEAV<lambda_d90129c13df834fdcbf8d2b88dafcf2d>@@@Z 000000018002de10     libucrt:fflush.obj
 0004:00000e1c       $pdata$??$?RV<lambda_886d6c58226a84441f68b9f2b8217b83>@@AEAV<lambda_ab61a845afdef5b7c387490eaf3616ee>@@V<lambda_f7f22ab5edc0698d5f6905b0d3f44752>@@@?$__crt_seh_guarded_call@X@@QEAAX$$QEAV<lambda_886d6c58226a84441f68b9f2b8217b83>@@AEAV<lambda_ab61a845afdef5b7c387490eaf3616ee>@@$$QEAV<lambda_f7f22ab5edc0698d5f6905b0d3f44752>@@@Z 000000018002de1c     libucrt:fflush.obj
 0004:00000e28       $pdata$??$?RV<lambda_c376a267cfb53b6959b3b692ec76b120>@@AEAV<lambda_9a32fed5bf61b6b509b2d3f6003082a1>@@V<lambda_572fbb9fa0ab338edf41edfd4b5fcc8d>@@@?$__crt_seh_guarded_call@H@@QEAAH$$QEAV<lambda_c376a267cfb53b6959b3b692ec76b120>@@AEAV<lambda_9a32fed5bf61b6b509b2d3f6003082a1>@@$$QEAV<lambda_572fbb9fa0ab338edf41edfd4b5fcc8d>@@@Z 000000018002de28     libucrt:fflush.obj
 0004:00000e34       $pdata$?common_flush_all@@YAH_N@Z 000000018002de34     libucrt:fflush.obj
 0004:00000e40       $pdata$__acrt_stdio_flush_nolock 000000018002de40     libucrt:fflush.obj
 0004:00000e4c       $pdata$_fflush_nolock      000000018002de4c     libucrt:fflush.obj
 0004:00000e58       $pdata$fflush              000000018002de58     libucrt:fflush.obj
 0004:00000e64       $pdata$??$?RV<lambda_84ec643ea9557e2f7dc01bb0e9624395>@@AEAV<lambda_ca71763b3c0644891230e4f79ea54fa6>@@V<lambda_439a761618c59b0600e24586724d733b>@@@?$__crt_seh_guarded_call@H@@QEAAH$$QEAV<lambda_84ec643ea9557e2f7dc01bb0e9624395>@@AEAV<lambda_ca71763b3c0644891230e4f79ea54fa6>@@$$QEAV<lambda_439a761618c59b0600e24586724d733b>@@@Z 000000018002de64     libucrt:setvbuf.obj
 0004:00000e70       $pdata$??R<lambda_ca71763b3c0644891230e4f79ea54fa6>@@QEBAHXZ 000000018002de70     libucrt:setvbuf.obj
 0004:00000e7c       $pdata$setvbuf             000000018002de7c     libucrt:setvbuf.obj
 0004:00000e88       $pdata$??$?RV<lambda_450d765d439847d4c735a33c368b5fc0>@@AEAV<lambda_44731a7d0e6d81c3e6aa82d741081786>@@V<lambda_601a2a7da3b7a96e9554ac7215c4b07c>@@@?$__crt_seh_guarded_call@P6AXH@Z@@QEAAP6AXH@Z$$QEAV<lambda_450d765d439847d4c735a33c368b5fc0>@@AEAV<lambda_44731a7d0e6d81c3e6aa82d741081786>@@$$QEAV<lambda_601a2a7da3b7a96e9554ac7215c4b07c>@@@Z 000000018002de88     libucrt:signal.obj
 0004:00000e94       $pdata$__acrt_get_sigabrt_handler 000000018002de94     libucrt:signal.obj
 0004:00000ea0       $pdata$raise               000000018002dea0     libucrt:signal.obj
 0004:00000eac       $pdata$??$?RV<lambda_0ae27a3a962d80f24befdcbee591983d>@@AEAV<lambda_8d0ee55de4b1038c4002e0adecdf1839>@@V<lambda_dc504788e8f1664fe9b84e20bfb512f2>@@@?$__crt_seh_guarded_call@X@@QEAAX$$QEAV<lambda_0ae27a3a962d80f24befdcbee591983d>@@AEAV<lambda_8d0ee55de4b1038c4002e0adecdf1839>@@$$QEAV<lambda_dc504788e8f1664fe9b84e20bfb512f2>@@@Z 000000018002deac     libucrt:per_thread_data.obj
 0004:00000eb8       $pdata$??$?RV<lambda_2d41944a1d46af3157314b8a01080d33>@@AEAV<lambda_8f455de75cd7d7f24b4096f044d8b9e6>@@V<lambda_aa500f224e6afead328df44964fe2772>@@@?$__crt_seh_guarded_call@X@@QEAAX$$QEAV<lambda_2d41944a1d46af3157314b8a01080d33>@@AEAV<lambda_8f455de75cd7d7f24b4096f044d8b9e6>@@$$QEAV<lambda_aa500f224e6afead328df44964fe2772>@@@Z 000000018002deb8     libucrt:per_thread_data.obj
 0004:00000ec4       $pdata$??$?RV<lambda_aa87e3671a710a21b5dc78c0bdf72e11>@@AEAV<lambda_92619d2358a28f41a33ba319515a20b9>@@V<lambda_6992ecaafeb10aed2b74cb1fae11a551>@@@?$__crt_seh_guarded_call@X@@QEAAX$$QEAV<lambda_aa87e3671a710a21b5dc78c0bdf72e11>@@AEAV<lambda_92619d2358a28f41a33ba319515a20b9>@@$$QEAV<lambda_6992ecaafeb10aed2b74cb1fae11a551>@@@Z 000000018002dec4     libucrt:per_thread_data.obj
 0004:00000ed0       $pdata$??$?RV<lambda_f2e299630e499de9f9a165e60fcd3db5>@@AEAV<lambda_2ae9d31cdba2644fcbeaf08da7c24588>@@V<lambda_40d01ff24d0e7b3814fdbdcee8eab3c7>@@@?$__crt_seh_guarded_call@X@@QEAAX$$QEAV<lambda_f2e299630e499de9f9a165e60fcd3db5>@@AEAV<lambda_2ae9d31cdba2644fcbeaf08da7c24588>@@$$QEAV<lambda_40d01ff24d0e7b3814fdbdcee8eab3c7>@@@Z 000000018002ded0     libucrt:per_thread_data.obj
 0004:00000edc       $pdata$?construct_ptd_array@@YAXQEAU__acrt_ptd@@@Z 000000018002dedc     libucrt:per_thread_data.obj
 0004:00000ee8       $pdata$?destroy_fls@@YAXPEAX@Z 000000018002dee8     libucrt:per_thread_data.obj
 0004:00000ef4       $pdata$?destroy_ptd_array@@YAXQEAU__acrt_ptd@@@Z 000000018002def4     libucrt:per_thread_data.obj
 0004:00000f00       $pdata$?replace_current_thread_locale_nolock@@YAXQEAU__acrt_ptd@@QEAU__crt_locale_data@@@Z 000000018002df00     libucrt:per_thread_data.obj
 0004:00000f0c       $pdata$__acrt_freeptd      000000018002df0c     libucrt:per_thread_data.obj
 0004:00000f18       $pdata$__acrt_getptd       000000018002df18     libucrt:per_thread_data.obj
 0004:00000f24       $pdata$__acrt_getptd_head  000000018002df24     libucrt:per_thread_data.obj
 0004:00000f30       $pdata$__acrt_getptd_noexit 000000018002df30     libucrt:per_thread_data.obj
 0004:00000f3c       $pdata$__acrt_initialize_ptd 000000018002df3c     libucrt:per_thread_data.obj
 0004:00000f48       $pdata$__acrt_uninitialize_ptd 000000018002df48     libucrt:per_thread_data.obj
 0004:00000f54       $pdata$?internal_isupper_l@@YA_NHQEAU__crt_locale_pointers@@@Z 000000018002df54     libucrt:tolower_toupper.obj
 0004:00000f60       $pdata$_tolower_l          000000018002df60     libucrt:tolower_toupper.obj
 0004:00000f6c       $pdata$tolower             000000018002df6c     libucrt:tolower_toupper.obj
 0004:00000f78       $pdata$__acrt_update_locale_info 000000018002df78     libucrt:locale_update.obj
 0004:00000f84       $pdata$__acrt_update_multibyte_info 000000018002df84     libucrt:locale_update.obj
 0004:00000f90       $pdata$??$?RV<lambda_410d79af7f07d98d83a3f525b3859a53>@@AEAV<lambda_3e16ef9562a7dcce91392c22ab16ea36>@@V<lambda_38119f0e861e05405d8a144b9b982f0a>@@@?$__crt_seh_guarded_call@X@@QEAAX$$QEAV<lambda_410d79af7f07d98d83a3f525b3859a53>@@AEAV<lambda_3e16ef9562a7dcce91392c22ab16ea36>@@$$QEAV<lambda_38119f0e861e05405d8a144b9b982f0a>@@@Z 000000018002df90     libucrt:wsetlocale.obj
 0004:00000f9c       $pdata$__acrt_uninitialize_locale 000000018002df9c     libucrt:wsetlocale.obj
 0004:00000fa8       $pdata$_malloc_base        000000018002dfa8     libucrt:malloc_base.obj
 0004:00000fb4       $pdata$isdigit             000000018002dfb4     libucrt:_ctype.obj
 0004:00000fc0       $pdata$strtol              000000018002dfc0     libucrt:strtox.obj
 0004:00000fcc       $pdata$wcstol              000000018002dfcc     libucrt:strtox.obj
 0004:00000fd8       $pdata$_mbtowc_l           000000018002dfd8     libucrt:mbtowc.obj
 0004:00000fe4       $pdata$_wctomb_s_l         000000018002dfe4     libucrt:wctomb.obj
 0004:00000ff0       $pdata$wctomb_s            000000018002dff0     libucrt:wctomb.obj
 0004:00000ffc       $pdata$?fp_format_a@@YAHQEBNPEAD_KQEAD2H_NIQEAU__crt_locale_pointers@@@Z 000000018002dffc     libucrt:cvt.obj
 0004:00001008       $pdata$?fp_format_e@@YAHQEBNQEAD_K12H_NIQEAU__crt_locale_pointers@@@Z 000000018002e008     libucrt:cvt.obj
 0004:00001014       $pdata$?fp_format_e_internal@@YAHQEAD_KH_NIQEAU_strflt@@2QEAU__crt_locale_pointers@@@Z 000000018002e014     libucrt:cvt.obj
 0004:00001020       $pdata$?fp_format_f_internal@@YAHQEAD_KHQEAU_strflt@@_NQEAU__crt_locale_pointers@@@Z 000000018002e020     libucrt:cvt.obj
 0004:0000102c       $pdata$?fp_format_g@@YAHQEBNQEAD_K12H_NIQEAU__crt_locale_pointers@@@Z 000000018002e02c     libucrt:cvt.obj
 0004:00001038       $pdata$?fp_format_nan_or_infinity@@YAHW4__acrt_fp_class@@_NPEAD_K1@Z 000000018002e038     libucrt:cvt.obj
 0004:00001044       $pdata$__acrt_fp_format    000000018002e044     libucrt:cvt.obj
 0004:00001050       $pdata$_fputwc_nolock      000000018002e050     libucrt:fputwc.obj
 0004:0000105c       $pdata$_fileno             000000018002e05c     libucrt:fileno.obj
 0004:00001068       $pdata$__acrt_stdio_begin_temporary_buffering_nolock 000000018002e068     libucrt:_sftbuf.obj
 0004:00001074       $pdata$__acrt_stdio_end_temporary_buffering_nolock 000000018002e074     libucrt:_sftbuf.obj
 0004:00001080       $pdata$?initialize_inherited_file_handles_nolock@@YAXXZ 000000018002e080     libucrt:ioinit.obj
 0004:0000108c       $pdata$?initialize_stdio_handles_nolock@@YAXXZ 000000018002e08c     libucrt:ioinit.obj
 0004:00001098       $pdata$__acrt_initialize_lowio 000000018002e098     libucrt:ioinit.obj
 0004:000010a4       $pdata$__acrt_uninitialize_lowio 000000018002e0a4     libucrt:ioinit.obj
 0004:000010b0       $pdata$?write_double_translated_ansi_nolock@@YA?AUwrite_result@?A0x17268360@@HQEBDI@Z 000000018002e0b0     libucrt:write.obj
 0004:000010bc       $pdata$?write_text_ansi_nolock@@YA?AUwrite_result@?A0x17268360@@HQEBDI@Z 000000018002e0bc     libucrt:write.obj
 0004:000010c8       $pdata$?write_text_utf16le_nolock@@YA?AUwrite_result@?A0x17268360@@HQEBDI@Z 000000018002e0c8     libucrt:write.obj
 0004:000010d4       $pdata$?write_text_utf8_nolock@@YA?AUwrite_result@?A0x17268360@@HQEBDI@Z 000000018002e0d4     libucrt:write.obj
 0004:000010e0       $pdata$_write              000000018002e0e0     libucrt:write.obj
 0004:000010ec       $pdata$_write_nolock       000000018002e0ec     libucrt:write.obj
 0004:000010f8       $pdata$??$write_buffer_nolock@D@@YA_NDV__crt_stdio_stream@@@Z 000000018002e0f8     libucrt:_flsbuf.obj
 0004:00001104       $pdata$??$write_buffer_nolock@_W@@YA_N_WV__crt_stdio_stream@@@Z 000000018002e104     libucrt:_flsbuf.obj
 0004:00001110       $pdata$?stream_is_at_end_of_file_nolock@@YA_NV__crt_stdio_stream@@@Z 000000018002e110     libucrt:_flsbuf.obj
 0004:0000111c       $pdata$__acrt_stdio_flush_and_write_narrow_nolock 000000018002e11c     libucrt:_flsbuf.obj
 0004:00001128       $pdata$__acrt_stdio_flush_and_write_wide_nolock 000000018002e128     libucrt:_flsbuf.obj
 0004:00001134       $pdata$__acrt_initialize_locks 000000018002e134     libucrt:locks.obj
 0004:00001140       $pdata$__acrt_uninitialize_locks 000000018002e140     libucrt:locks.obj
 0004:0000114c       $pdata$__acrt_get_developer_information_policy 000000018002e14c     libucrt:win_policies.obj
 0004:00001158       $pdata$__acrt_get_process_end_policy 000000018002e158     libucrt:win_policies.obj
 0004:00001164       $pdata$__acrt_get_windowing_model_policy 000000018002e164     libucrt:win_policies.obj
 0004:00001170       $pdata$??$__acrt_mbs_to_wcs_cp@U__crt_win32_buffer_internal_dynamic_resizing@@@@YAHQEBDAEAV?$__crt_win32_buffer@_WU__crt_win32_buffer_internal_dynamic_resizing@@@@I@Z 000000018002e170     libucrt:argv_wildcards.obj
 0004:0000117c       $pdata$??$__acrt_wcs_to_mbs_cp@U__crt_win32_buffer_internal_dynamic_resizing@@@@YAHQEB_WAEAV?$__crt_win32_buffer@DU__crt_win32_buffer_internal_dynamic_resizing@@@@I@Z 000000018002e17c     libucrt:argv_wildcards.obj
 0004:00001188       $pdata$??$common_expand_argv_wildcards@D@@YAHQEAPEADQEAPEAPEAD@Z 000000018002e188     libucrt:argv_wildcards.obj
 0004:00001194       $pdata$??$copy_and_add_argument_to_buffer@D@@YAHQEBD0_KAEAV?$argument_list@D@?A0x5f5c8891@@@Z 000000018002e194     libucrt:argv_wildcards.obj
 0004:000011a0       $pdata$??$expand_argument_wildcards@D@@YAHQEAD0AEAV?$argument_list@D@?A0x5f5c8891@@@Z 000000018002e1a0     libucrt:argv_wildcards.obj
 0004:000011ac       $pdata$??$?RV<lambda_efdfa57d1f175319df784efa44bb7b81>@@AEAV<lambda_5f0a4c1567f8adc6734073e5d1e1b35c>@@V<lambda_2e8a7d3640ea6ccb4c2413664c2db6fd>@@@?$__crt_seh_guarded_call@X@@QEAAX$$QEAV<lambda_efdfa57d1f175319df784efa44bb7b81>@@AEAV<lambda_5f0a4c1567f8adc6734073e5d1e1b35c>@@$$QEAV<lambda_2e8a7d3640ea6ccb4c2413664c2db6fd>@@@Z 000000018002e1ac     libucrt:mbctype.obj
 0004:000011b8       $pdata$?getSystemCP@@YAHH@Z 000000018002e1b8     libucrt:mbctype.obj
 0004:000011c4       $pdata$?setSBCS@@YAXPEAU__crt_multibyte_data@@@Z 000000018002e1c4     libucrt:mbctype.obj
 0004:000011d0       $pdata$?setSBUpLow@@YAXPEAU__crt_multibyte_data@@@Z 000000018002e1d0     libucrt:mbctype.obj
 0004:000011dc       $pdata$?setmbcp_internal@@YAHH_NQEAU__acrt_ptd@@QEAPEAU__crt_multibyte_data@@@Z 000000018002e1dc     libucrt:mbctype.obj
 0004:000011e8       $pdata$?update_thread_multibyte_data_internal@@YAPEAU__crt_multibyte_data@@QEAU__acrt_ptd@@QEAPEAU1@@Z 000000018002e1e8     libucrt:mbctype.obj
 0004:000011f4       $pdata$__acrt_initialize_multibyte 000000018002e1f4     libucrt:mbctype.obj
 0004:00001200       $pdata$__acrt_update_thread_multibyte_data 000000018002e200     libucrt:mbctype.obj
 0004:0000120c       $pdata$_setmbcp_nolock     000000018002e20c     libucrt:mbctype.obj
 0004:00001218       $pdata$?x_ismbbtype_l@@YAHPEAU__crt_locale_pointers@@IHH@Z 000000018002e218     libucrt:ismbbyte.obj
 0004:00001224       $pdata$__acrt_initialize_command_line 000000018002e224     libucrt:argv_data.obj
 0004:00001230       $pdata$__acrt_WideCharToMultiByte 000000018002e230     libucrt:widechartomultibyte.obj
 0004:0000123c       $pdata$__dcrt_get_narrow_environment_from_os 000000018002e23c     libucrt:get_environment_from_os.obj
 0004:00001248       $pdata$_recalloc_base      000000018002e248     libucrt:recalloc.obj
 0004:00001254       $pdata$?try_get_function@@YAPEAXW4function_id@?A0x391cf84c@@QEBDQEBW4module_id@2@2@Z 000000018002e254     libucrt:winapi_thunks.obj
 0004:00001260       $pdata$__acrt_AppPolicyGetProcessTerminationMethodInternal 000000018002e260     libucrt:winapi_thunks.obj
 0004:0000126c       $pdata$__acrt_AppPolicyGetShowDeveloperDiagnosticInternal 000000018002e26c     libucrt:winapi_thunks.obj
 0004:00001278       $pdata$__acrt_AppPolicyGetWindowingModelInternal 000000018002e278     libucrt:winapi_thunks.obj
 0004:00001284       $pdata$__acrt_AreFileApisANSI 000000018002e284     libucrt:winapi_thunks.obj
 0004:00001290       $pdata$__acrt_FlsAlloc     000000018002e290     libucrt:winapi_thunks.obj
 0004:0000129c       $pdata$__acrt_FlsFree      000000018002e29c     libucrt:winapi_thunks.obj
 0004:000012a8       $pdata$__acrt_FlsGetValue  000000018002e2a8     libucrt:winapi_thunks.obj
 0004:000012b4       $pdata$__acrt_FlsSetValue  000000018002e2b4     libucrt:winapi_thunks.obj
 0004:000012c0       $pdata$__acrt_InitializeCriticalSectionEx 000000018002e2c0     libucrt:winapi_thunks.obj
 0004:000012cc       $pdata$__acrt_LCMapStringEx 000000018002e2cc     libucrt:winapi_thunks.obj
 0004:000012d8       $pdata$__acrt_LocaleNameToLCID 000000018002e2d8     libucrt:winapi_thunks.obj
 0004:000012e4       $pdata$__acrt_MessageBoxW  000000018002e2e4     libucrt:winapi_thunks.obj
 0004:000012f0       $pdata$__acrt_can_show_message_box 000000018002e2f0     libucrt:winapi_thunks.obj
 0004:000012fc       $pdata$__acrt_get_parent_window 000000018002e2fc     libucrt:winapi_thunks.obj
 0004:00001308       $pdata$__acrt_initialize_winapi_thunks 000000018002e308     libucrt:winapi_thunks.obj
 0004:00001314       $pdata$__acrt_is_interactive 000000018002e314     libucrt:winapi_thunks.obj
 0004:00001320       $pdata$__acrt_uninitialize_winapi_thunks 000000018002e320     libucrt:winapi_thunks.obj
 0004:0000132c       $pdata$__acrt_initialize_heap 000000018002e32c     libucrt:heap_handle.obj
 0004:00001338       $pdata$__acrt_execute_initializers 000000018002e338     libucrt:shared_initialization.obj
 0004:00001344       $pdata$__acrt_execute_uninitializers 000000018002e344     libucrt:shared_initialization.obj
 0004:00001350       $pdata$__pctype_func       000000018002e350     libucrt:ctype.obj
 0004:0000135c       $pdata$iswctype            000000018002e35c     libucrt:iswctype.obj
 0004:00001368       $pdata$_isctype_l          000000018002e368     libucrt:isctype.obj
 0004:00001374       $pdata$_fcloseall          000000018002e374     libucrt:closeall.obj
 0004:00001380       $pdata$__acrt_stdio_free_buffer_nolock 000000018002e380     libucrt:_freebuf.obj
 0004:0000138c       $pdata$??$?RV<lambda_a37b2b86f63e897a80ea819b0eb08c01>@@AEAV<lambda_38ce7e780aa69e748d6df282ebc68efe>@@V<lambda_99fb1378e971ab6e7edea83e3a7a83a2>@@@?$__crt_seh_guarded_call@H@@QEAAH$$QEAV<lambda_a37b2b86f63e897a80ea819b0eb08c01>@@AEAV<lambda_38ce7e780aa69e748d6df282ebc68efe>@@$$QEAV<lambda_99fb1378e971ab6e7edea83e3a7a83a2>@@@Z 000000018002e38c     libucrt:commit.obj
 0004:00001398       $pdata$_commit             000000018002e398     libucrt:commit.obj
 0004:000013a4       $pdata$__acrt_free_locale  000000018002e3a4     libucrt:locale_refcounting.obj
 0004:000013b0       $pdata$__acrt_locale_free_lc_time_if_unreferenced 000000018002e3b0     libucrt:locale_refcounting.obj
 0004:000013bc       $pdata$__acrt_release_locale_ref 000000018002e3bc     libucrt:locale_refcounting.obj
 0004:000013c8       $pdata$__acrt_update_thread_locale_data 000000018002e3c8     libucrt:locale_refcounting.obj
 0004:000013d4       $pdata$_updatetlocinfoEx_nolock 000000018002e3d4     libucrt:locale_refcounting.obj
 0004:000013e0       $pdata$_isleadbyte_l       000000018002e3e0     libucrt:_wctype.obj
 0004:000013ec       $pdata$?__acrt_LCMapStringA_stat@@YAHPEAU__crt_locale_pointers@@PEB_WKPEBDHPEADHHH@Z 000000018002e3ec     libucrt:lcmapstringa.obj
 0004:000013f8       $pdata$__acrt_LCMapStringA 000000018002e3f8     libucrt:lcmapstringa.obj
 0004:00001404       $pdata$__acrt_locale_free_monetary 000000018002e404     libucrt:initmon.obj
 0004:00001410       $pdata$__acrt_locale_free_numeric 000000018002e410     libucrt:initnum.obj
 0004:0000141c       $pdata$?free_crt_array_internal@@YAXQEAPEBX_K@Z 000000018002e41c     libucrt:inittime.obj
 0004:00001428       $pdata$__acrt_locale_free_time 000000018002e428     libucrt:inittime.obj
 0004:00001434       $pdata$__acrt_GetStringTypeA 000000018002e434     libucrt:getstringtypea.obj
 0004:00001440       $pdata$?__mbrtowc_utf8@__crt_mbstring@@YA_KPEA_WPEBD_KPEAU_Mbstatet@@@Z 000000018002e440     libucrt:mbrtowc.obj
 0004:0000144c       $pdata$?__mbsrtowcs_utf8@__crt_mbstring@@YA_KPEA_WPEAPEBD_KPEAU_Mbstatet@@@Z 000000018002e44c     libucrt:mbrtowc.obj
 0004:00001458       $pdata$?__c32rtomb_utf8@__crt_mbstring@@YA_KPEAD_UPEAU_Mbstatet@@@Z 000000018002e458     libucrt:c32rtomb.obj
 0004:00001464       $pdata$__acrt_fp_strflt_to_string 000000018002e464     libucrt:_fptostr.obj
 0004:00001470       $pdata$?divide@__crt_strtox@@YA_KAEAUbig_integer@1@AEBU21@@Z 000000018002e470     libucrt:cfout.obj
 0004:0000147c       $pdata$0$?divide@__crt_strtox@@YA_KAEAUbig_integer@1@AEBU21@@Z 000000018002e47c     libucrt:cfout.obj
 0004:00001488       $pdata$1$?divide@__crt_strtox@@YA_KAEAUbig_integer@1@AEBU21@@Z 000000018002e488     libucrt:cfout.obj
 0004:00001494       $pdata$__acrt_fltout       000000018002e494     libucrt:cfout.obj
 0004:000014a0       $pdata$memcpy_s            000000018002e4a0     libucrt:cfout.obj
 0004:000014ac       $pdata$_isatty             000000018002e4ac     libucrt:isatty.obj
 0004:000014b8       $pdata$__acrt_lowio_create_handle_array 000000018002e4b8     libucrt:osfinfo.obj
 0004:000014c4       $pdata$__acrt_lowio_destroy_handle_array 000000018002e4c4     libucrt:osfinfo.obj
 0004:000014d0       $pdata$__acrt_lowio_ensure_fh_exists 000000018002e4d0     libucrt:osfinfo.obj
 0004:000014dc       $pdata$_free_osfhnd        000000018002e4dc     libucrt:osfinfo.obj
 0004:000014e8       $pdata$_get_osfhandle      000000018002e4e8     libucrt:osfinfo.obj
 0004:000014f4       $pdata$??$common_lseek@_J@@YA_JH_JH@Z 000000018002e4f4     libucrt:lseek.obj
 0004:00001500       $pdata$??$common_lseek_nolock@_J@@YA_JH_JH@Z 000000018002e500     libucrt:lseek.obj
 0004:0000150c       $pdata$_putwch_nolock      000000018002e50c     libucrt:putwch.obj
 0004:00001518       $pdata$__acrt_stdio_allocate_buffer_nolock 000000018002e518     libucrt:_getbuf.obj
 0004:00001524       $pdata$qsort               000000018002e524     libucrt:qsort.obj
 0004:00001530       $pdata$4$qsort             000000018002e530     libucrt:qsort.obj
 0004:0000153c       $pdata$5$qsort             000000018002e53c     libucrt:qsort.obj
 0004:00001548       $pdata$strncpy_s           000000018002e548     libucrt:strncpy_s.obj
 0004:00001554       $pdata$fallbackMethod      000000018002e554     libucrt:strpbrk.obj
 0004:00001560       $pdata$strpbrk             000000018002e560     libucrt:strpbrk.obj
 0004:0000156c       $pdata$_mbsdec_l           000000018002e56c     libucrt:mbsdec.obj
 0004:00001578       $pdata$?initialize_multibyte@@YAHXZ 000000018002e578     libucrt:multibyte_initializer.obj
 0004:00001584       $pdata$_msize_base         000000018002e584     libucrt:msize.obj
 0004:00001590       $pdata$?GetTableIndexFromLocaleName@@YAHPEB_W@Z 000000018002e590     libucrt:lcidtoname_downlevel.obj
 0004:0000159c       $pdata$__acrt_DownlevelLocaleNameToLCID 000000018002e59c     libucrt:lcidtoname_downlevel.obj
 0004:000015a8       $pdata$_fclose_nolock      000000018002e5a8     libucrt:fclose.obj
 0004:000015b4       $pdata$fclose              000000018002e5b4     libucrt:fclose.obj
 0004:000015c0       $pdata$?__mbrtoc32_utf8@__crt_mbstring@@YA_KPEA_UPEBD_KPEAU_Mbstatet@@@Z 000000018002e5c0     libucrt:mbrtoc32.obj
 0004:000015cc       $pdata$fegetenv            000000018002e5cc     libucrt:fegetenv.obj
 0004:000015d8       $pdata$fesetenv            000000018002e5d8     libucrt:fesetenv.obj
 0004:000015e4       $pdata$feholdexcept        000000018002e5e4     libucrt:feholdexcept.obj
 0004:000015fc       $pdata$__dcrt_lowio_ensure_console_output_initialized 000000018002e5fc     libucrt:initcon.obj
 0004:00001608       $pdata$__dcrt_terminate_console_output 000000018002e608     libucrt:initcon.obj
 0004:00001614       $pdata$__dcrt_write_console 000000018002e614     libucrt:initcon.obj
 0004:00001620       $pdata$??$?RV<lambda_751a882b2c74d4b022dec766aa51a29a>@@AEAV<lambda_628dfdc04ba53c8bfc02c9951375f3f5>@@V<lambda_f6c7be5f7998530c34de24c7437d6b54>@@@?$__crt_seh_guarded_call@H@@QEAAH$$QEAV<lambda_751a882b2c74d4b022dec766aa51a29a>@@AEAV<lambda_628dfdc04ba53c8bfc02c9951375f3f5>@@$$QEAV<lambda_f6c7be5f7998530c34de24c7437d6b54>@@@Z 000000018002e620     libucrt:close.obj
 0004:0000162c       $pdata$_close              000000018002e62c     libucrt:close.obj
 0004:00001638       $pdata$_close_nolock       000000018002e638     libucrt:close.obj
 0004:00001644       $pdata$__acrt_fenv_set_control 000000018002e644     libucrt:_fenvutils.obj
 0004:00001650       $pdata$_clearfp            000000018002e650     libucrt:ieee.obj
 0004:0000165c       $pdata$_call_matherr       000000018002e65c     libucrt:libm_error.obj
 0004:00001668       $pdata$_exception_enabled  000000018002e668     libucrt:libm_error.obj
 0004:00001674       $pdata$_handle_error       000000018002e674     libucrt:libm_error.obj
 0004:00001680       $pdata$__acrt_initialize_fma3 000000018002e680     libucrt:fma3_available.obj
 0004:0000168c       $pdata$_log10_special      000000018002e68c     libucrt:log_special.obj
 0004:00001698       $pdata$_log_special_common 000000018002e698     libucrt:log_special.obj
 0004:000016b0       $pdata$_raise_exc          000000018002e6b0     libucrt:fpexcept.obj
 0004:000016bc       $pdata$_raise_exc_ex       000000018002e6bc     libucrt:fpexcept.obj
 0004:000016c8       $pdata$_set_errno_from_matherr 000000018002e6c8     libucrt:fpexcept.obj
 0004:000016d4       $pdata$_clrfp              000000018002e6d4     libucrt:fpctrl.obj
 0004:000016e0       $pdata$_ctrlfp             000000018002e6e0     libucrt:fpctrl.obj
 0004:000016ec       $pdata$_set_statfp         000000018002e6ec     libucrt:fpctrl.obj
 0004:000016f8       $pdata$_statfp             000000018002e6f8     libucrt:fpctrl.obj
 0004:00001704       $pdata$?DloadAcquireSectionWriteAccess@@YAXXZ 000000018002e704     DelayImp:delayhlp.obj
 0004:00001710       $pdata$?DloadGetSRWLockFunctionPointers@@YAEXZ 000000018002e710     DelayImp:delayhlp.obj
 0004:0000171c       $pdata$?DloadMakePermanentImageCommit@@YAXPEAX_K@Z 000000018002e71c     DelayImp:delayhlp.obj
 0004:00001728       $pdata$?DloadObtainSection@@YAPEAXPEAK0@Z 000000018002e728     DelayImp:delayhlp.obj
 0004:00001734       $pdata$?DloadProtectSection@@YAXKPEAK@Z 000000018002e734     DelayImp:delayhlp.obj
 0004:00001740       $pdata$?DloadReleaseSectionWriteAccess@@YAXXZ 000000018002e740     DelayImp:delayhlp.obj
 0004:0000174c       $pdata$__delayLoadHelper2  000000018002e74c     DelayImp:delayhlp.obj
 0004:00001758       $pdata$__GSHandlerCheck    000000018002e758     LIBCMT:gshandler.obj
 0004:00001764       $pdata$__GSHandlerCheckCommon 000000018002e764     LIBCMT:gshandler.obj
 0004:00001770       $pdata$_IsNonwritableInCurrentImage 000000018002e770     LIBCMT:pesect.obj
 0004:00001794       $pdata$strrchr             000000018002e794     libvcruntime:strrchr.obj
 0004:000017a0       $pdata$__GSHandlerCheck_EH 000000018002e7a0     LIBCMT:gshandlereh.obj
 0004:000017b8       $pdata$?catch$20@?0??pack@@YAXAEBV?$FunctionCallbackInfo@VValue@v8@@@Nan@@@Z@4HA 000000018002e7b8     msgpack.obj
 0004:000017c4       $pdata$?catch$14@?0??unpack@@YAXAEBV?$FunctionCallbackInfo@VValue@v8@@@Nan@@@Z@4HA 000000018002e7c4     msgpack.obj
 0004:000017d0       $pdata$__scrt_is_nonwritable_in_current_image$filt$0 000000018002e7d0     LIBCMT:utility.obj
 0004:000017dc       $pdata$?fin$0@?0??dllmain_crt_process_attach@@YAHQEAUHINSTANCE__@@QEAX@Z@4HA 000000018002e7dc     LIBCMT:dll_dllmain.obj
 0004:000017e8       $pdata$?fin$0@?0??dllmain_crt_process_detach@@YAH_N@Z@4HA 000000018002e7e8     LIBCMT:dll_dllmain.obj
 0004:000017f4       $pdata$?filt$0@?0??dllmain_dispatch@@YAHQEAUHINSTANCE__@@KQEAX@Z@4HA 000000018002e7f4     LIBCMT:dll_dllmain.obj
 0004:00001800       $pdata$?filt$0@?0???$_CallSETranslator@V__FrameHandler3@@@@YAHPEAUEHExceptionRecord@@PEA_KPEAU_CONTEXT@@PEAU_xDISPATCHER_CONTEXT@@PEBU_s_FuncInfo@@K1@Z@4HA 000000018002e800     libvcruntime:risctrnsctrl.obj
 0004:0000180c       $pdata$__DestructExceptionObject$filt$0 000000018002e80c     libvcruntime:ehhelpers.obj
 0004:00001818       $pdata$?filt$0@?0??CxxCallCatchBlock@__FrameHandler3@@SAPEAXPEAU_EXCEPTION_RECORD@@@Z@4HA 000000018002e818     libvcruntime:frame.obj
 0004:00001824       $pdata$?fin$1@?0??CxxCallCatchBlock@__FrameHandler3@@SAPEAXPEAU_EXCEPTION_RECORD@@@Z@4HA 000000018002e824     libvcruntime:frame.obj
 0004:00001830       $pdata$?filt$0@?0??FrameUnwindToState@__FrameHandler3@@SAXPEA_KPEAU_xDISPATCHER_CONTEXT@@PEBU_s_FuncInfo@@H@Z@4HA 000000018002e830     libvcruntime:frame.obj
 0004:0000183c       $pdata$?fin$1@?0??FrameUnwindToState@__FrameHandler3@@SAXPEA_KPEAU_xDISPATCHER_CONTEXT@@PEBU_s_FuncInfo@@H@Z@4HA 000000018002e83c     libvcruntime:frame.obj
 0004:00001848       $pdata$?fin$0@?0???$?RV<lambda_84ec643ea9557e2f7dc01bb0e9624395>@@AEAV<lambda_ca71763b3c0644891230e4f79ea54fa6>@@V<lambda_439a761618c59b0600e24586724d733b>@@@?$__crt_seh_guarded_call@H@@QEAAH$$QEAV<lambda_84ec643ea9557e2f7dc01bb0e9624395>@@AEAV<lambda_ca71763b3c0644891230e4f79ea54fa6>@@$$QEAV<lambda_439a761618c59b0600e24586724d733b>@@@Z@4HA 000000018002e848     libucrt:setvbuf.obj
 0004:00001848       $pdata$?fin$0@?0???$?RV<lambda_a62c933ada0517137acf5807a1eeac1f>@@AEAV<lambda_a31071773b9a94e445cbd5d04ef99106>@@V<lambda_56065050dbf3ada7e59a83db45153de3>@@@?$__crt_seh_guarded_call@H@@QEAAH$$QEAV<lambda_a62c933ada0517137acf5807a1eeac1f>@@AEAV<lambda_a31071773b9a94e445cbd5d04ef99106>@@$$QEAV<lambda_56065050dbf3ada7e59a83db45153de3>@@@Z@4HA 000000018002e848     libucrt:output.obj
 0004:00001848       $pdata$?fin$0@?0???$?RV<lambda_0d412022a4b28cc8a401ea49574e8ae6>@@AEAV<lambda_a775ed57af18ba8e4d5dc780aa9068fe>@@V<lambda_975a71a6baa488a08f4e15f6b0339b9e>@@@?$__crt_seh_guarded_call@H@@QEAAH$$QEAV<lambda_0d412022a4b28cc8a401ea49574e8ae6>@@AEAV<lambda_a775ed57af18ba8e4d5dc780aa9068fe>@@$$QEAV<lambda_975a71a6baa488a08f4e15f6b0339b9e>@@@Z@4HA 000000018002e848     libucrt:output.obj
 0004:00001848       $pdata$?fin$0@?0???$?RV<lambda_bdbcead8b570fa3d5ec6d9679862a6e5>@@AEAV<lambda_96f4279ff90247a4c5c5d9824f56f8c1>@@V<lambda_4606be27f17b5e5579e09050fab91818>@@@?$__crt_seh_guarded_call@_K@@QEAA_K$$QEAV<lambda_bdbcead8b570fa3d5ec6d9679862a6e5>@@AEAV<lambda_96f4279ff90247a4c5c5d9824f56f8c1>@@$$QEAV<lambda_4606be27f17b5e5579e09050fab91818>@@@Z@4HA 000000018002e848     libucrt:fwrite.obj
 0004:00001848       $pdata$?fin$0@?0???$?RV<lambda_c376a267cfb53b6959b3b692ec76b120>@@AEAV<lambda_9a32fed5bf61b6b509b2d3f6003082a1>@@V<lambda_572fbb9fa0ab338edf41edfd4b5fcc8d>@@@?$__crt_seh_guarded_call@H@@QEAAH$$QEAV<lambda_c376a267cfb53b6959b3b692ec76b120>@@AEAV<lambda_9a32fed5bf61b6b509b2d3f6003082a1>@@$$QEAV<lambda_572fbb9fa0ab338edf41edfd4b5fcc8d>@@@Z@4HA 000000018002e848     libucrt:fflush.obj
 0004:00001848       $pdata$?fin$0@?0???$?RV<lambda_842d9ff0dc9ef11c61343bbaebe7f885>@@AEAV<lambda_c5860995281e5c4ce005b3de8f5874ee>@@V<lambda_d90129c13df834fdcbf8d2b88dafcf2d>@@@?$__crt_seh_guarded_call@X@@QEAAX$$QEAV<lambda_842d9ff0dc9ef11c61343bbaebe7f885>@@AEAV<lambda_c5860995281e5c4ce005b3de8f5874ee>@@$$QEAV<lambda_d90129c13df834fdcbf8d2b88dafcf2d>@@@Z@4HA 000000018002e848     libucrt:fflush.obj
 0004:00001854       $pdata$_query_new_handler$fin$0 000000018002e854     libucrt:new_handler.obj
 0004:00001860       $pdata$?fin$0@?0???$?RV<lambda_aa87e3671a710a21b5dc78c0bdf72e11>@@AEAV<lambda_92619d2358a28f41a33ba319515a20b9>@@V<lambda_6992ecaafeb10aed2b74cb1fae11a551>@@@?$__crt_seh_guarded_call@X@@QEAAX$$QEAV<lambda_aa87e3671a710a21b5dc78c0bdf72e11>@@AEAV<lambda_92619d2358a28f41a33ba319515a20b9>@@$$QEAV<lambda_6992ecaafeb10aed2b74cb1fae11a551>@@@Z@4HA 000000018002e860     libucrt:per_thread_data.obj
 0004:00001860       $pdata$?fin$0@?0???$?RV<lambda_f2e299630e499de9f9a165e60fcd3db5>@@AEAV<lambda_2ae9d31cdba2644fcbeaf08da7c24588>@@V<lambda_40d01ff24d0e7b3814fdbdcee8eab3c7>@@@?$__crt_seh_guarded_call@X@@QEAAX$$QEAV<lambda_f2e299630e499de9f9a165e60fcd3db5>@@AEAV<lambda_2ae9d31cdba2644fcbeaf08da7c24588>@@$$QEAV<lambda_40d01ff24d0e7b3814fdbdcee8eab3c7>@@@Z@4HA 000000018002e860     libucrt:per_thread_data.obj
 0004:00001860       $pdata$?fin$0@?0???$?RV<lambda_2d41944a1d46af3157314b8a01080d33>@@AEAV<lambda_8f455de75cd7d7f24b4096f044d8b9e6>@@V<lambda_aa500f224e6afead328df44964fe2772>@@@?$__crt_seh_guarded_call@X@@QEAAX$$QEAV<lambda_2d41944a1d46af3157314b8a01080d33>@@AEAV<lambda_8f455de75cd7d7f24b4096f044d8b9e6>@@$$QEAV<lambda_aa500f224e6afead328df44964fe2772>@@@Z@4HA 000000018002e860     libucrt:per_thread_data.obj
 0004:00001860       $pdata$?fin$0@?0???$?RV<lambda_0ae27a3a962d80f24befdcbee591983d>@@AEAV<lambda_8d0ee55de4b1038c4002e0adecdf1839>@@V<lambda_dc504788e8f1664fe9b84e20bfb512f2>@@@?$__crt_seh_guarded_call@X@@QEAAX$$QEAV<lambda_0ae27a3a962d80f24befdcbee591983d>@@AEAV<lambda_8d0ee55de4b1038c4002e0adecdf1839>@@$$QEAV<lambda_dc504788e8f1664fe9b84e20bfb512f2>@@@Z@4HA 000000018002e860     libucrt:per_thread_data.obj
 0004:00001860       $pdata$?fin$0@?0???$?RV<lambda_450d765d439847d4c735a33c368b5fc0>@@AEAV<lambda_44731a7d0e6d81c3e6aa82d741081786>@@V<lambda_601a2a7da3b7a96e9554ac7215c4b07c>@@@?$__crt_seh_guarded_call@P6AXH@Z@@QEAAP6AXH@Z$$QEAV<lambda_450d765d439847d4c735a33c368b5fc0>@@AEAV<lambda_44731a7d0e6d81c3e6aa82d741081786>@@$$QEAV<lambda_601a2a7da3b7a96e9554ac7215c4b07c>@@@Z@4HA 000000018002e860     libucrt:signal.obj
 0004:00001860       $pdata$?fin$0@?0???$?RV<lambda_efdfa57d1f175319df784efa44bb7b81>@@AEAV<lambda_5f0a4c1567f8adc6734073e5d1e1b35c>@@V<lambda_2e8a7d3640ea6ccb4c2413664c2db6fd>@@@?$__crt_seh_guarded_call@X@@QEAAX$$QEAV<lambda_efdfa57d1f175319df784efa44bb7b81>@@AEAV<lambda_5f0a4c1567f8adc6734073e5d1e1b35c>@@$$QEAV<lambda_2e8a7d3640ea6ccb4c2413664c2db6fd>@@@Z@4HA 000000018002e860     libucrt:mbctype.obj
 0004:00001860       $pdata$?fin$0@?0???$?RV<lambda_7777bce6b2f8c936911f934f8298dc43>@@AEAV<lambda_f03950bc5685219e0bcd2087efbe011e>@@V<lambda_3883c3dff614d5e0c5f61bb1ac94921c>@@@?$__crt_seh_guarded_call@H@@QEAAH$$QEAV<lambda_7777bce6b2f8c936911f934f8298dc43>@@AEAV<lambda_f03950bc5685219e0bcd2087efbe011e>@@$$QEAV<lambda_3883c3dff614d5e0c5f61bb1ac94921c>@@@Z@4HA 000000018002e860     libucrt:onexit.obj
 0004:00001860       $pdata$?fin$0@?0???$?RV<lambda_d80eeec6fff315bfe5c115232f3240e3>@@AEAV<lambda_6e4b09c48022b2350581041d5f6b0c4c>@@V<lambda_2358e3775559c9db80273638284d5e45>@@@?$__crt_seh_guarded_call@X@@QEAAX$$QEAV<lambda_d80eeec6fff315bfe5c115232f3240e3>@@AEAV<lambda_6e4b09c48022b2350581041d5f6b0c4c>@@$$QEAV<lambda_2358e3775559c9db80273638284d5e45>@@@Z@4HA 000000018002e860     libucrt:exit.obj
 0004:00001860       $pdata$?fin$0@?0???$?RV<lambda_638799b9deba96c50f710eeac98168cd>@@AEAV<lambda_22ebabd17bc4fa466a2aca6d8deb888d>@@V<lambda_a6f7d7db0129f75315ebf26d50c089f1>@@@?$__crt_seh_guarded_call@H@@QEAAH$$QEAV<lambda_638799b9deba96c50f710eeac98168cd>@@AEAV<lambda_22ebabd17bc4fa466a2aca6d8deb888d>@@$$QEAV<lambda_a6f7d7db0129f75315ebf26d50c089f1>@@@Z@4HA 000000018002e860     libucrt:onexit.obj
 0004:0000186c       $pdata$?filt$0@?0???R<lambda_6e4b09c48022b2350581041d5f6b0c4c>@@QEBA@XZ@4HA 000000018002e86c     libucrt:exit.obj
 0004:00001878       $pdata$?fin$0@?0???$?RV<lambda_886d6c58226a84441f68b9f2b8217b83>@@AEAV<lambda_ab61a845afdef5b7c387490eaf3616ee>@@V<lambda_f7f22ab5edc0698d5f6905b0d3f44752>@@@?$__crt_seh_guarded_call@X@@QEAAX$$QEAV<lambda_886d6c58226a84441f68b9f2b8217b83>@@AEAV<lambda_ab61a845afdef5b7c387490eaf3616ee>@@$$QEAV<lambda_f7f22ab5edc0698d5f6905b0d3f44752>@@@Z@4HA 000000018002e878     libucrt:fflush.obj
 0004:00001884       $pdata$raise$fin$0         000000018002e884     libucrt:signal.obj
 0004:00001890       $pdata$?fin$0@?0???$?RV<lambda_410d79af7f07d98d83a3f525b3859a53>@@AEAV<lambda_3e16ef9562a7dcce91392c22ab16ea36>@@V<lambda_38119f0e861e05405d8a144b9b982f0a>@@@?$__crt_seh_guarded_call@X@@QEAAX$$QEAV<lambda_410d79af7f07d98d83a3f525b3859a53>@@AEAV<lambda_3e16ef9562a7dcce91392c22ab16ea36>@@$$QEAV<lambda_38119f0e861e05405d8a144b9b982f0a>@@@Z@4HA 000000018002e890     libucrt:wsetlocale.obj
 0004:0000189c       $pdata$__acrt_initialize_lowio$fin$0 000000018002e89c     libucrt:ioinit.obj
 0004:0000189c       $pdata$__acrt_lowio_ensure_fh_exists$fin$0 000000018002e89c     libucrt:osfinfo.obj
 0004:000018a8       $pdata$_write$fin$0        000000018002e8a8     libucrt:write.obj
 0004:000018a8       $pdata$?fin$0@?0???$common_lseek@_J@@YA_JH_JH@Z@4HA 000000018002e8a8     libucrt:lseek.obj
 0004:000018b4       $pdata$?fin$0@?0??update_thread_multibyte_data_internal@@YAPEAU__crt_multibyte_data@@QEAU__acrt_ptd@@QEAPEAU1@@Z@4HA 000000018002e8b4     libucrt:mbctype.obj
 0004:000018c0       $pdata$_fcloseall$fin$0    000000018002e8c0     libucrt:closeall.obj
 0004:000018cc       $pdata$?fin$0@?0???$?RV<lambda_751a882b2c74d4b022dec766aa51a29a>@@AEAV<lambda_628dfdc04ba53c8bfc02c9951375f3f5>@@V<lambda_f6c7be5f7998530c34de24c7437d6b54>@@@?$__crt_seh_guarded_call@H@@QEAAH$$QEAV<lambda_751a882b2c74d4b022dec766aa51a29a>@@AEAV<lambda_628dfdc04ba53c8bfc02c9951375f3f5>@@$$QEAV<lambda_f6c7be5f7998530c34de24c7437d6b54>@@@Z@4HA 000000018002e8cc     libucrt:close.obj
 0004:000018cc       $pdata$?fin$0@?0???$?RV<lambda_a37b2b86f63e897a80ea819b0eb08c01>@@AEAV<lambda_38ce7e780aa69e748d6df282ebc68efe>@@V<lambda_99fb1378e971ab6e7edea83e3a7a83a2>@@@?$__crt_seh_guarded_call@H@@QEAAH$$QEAV<lambda_a37b2b86f63e897a80ea819b0eb08c01>@@AEAV<lambda_38ce7e780aa69e748d6df282ebc68efe>@@$$QEAV<lambda_99fb1378e971ab6e7edea83e3a7a83a2>@@@Z@4HA 000000018002e8cc     libucrt:commit.obj
 0004:000018d8       $pdata$__acrt_update_thread_locale_data$fin$0 000000018002e8d8     libucrt:locale_refcounting.obj
 0004:000018e4       $pdata$fclose$fin$0        000000018002e8e4     libucrt:fclose.obj
 0004:000018f0       $pdata$_ctrlfp$filt$0      000000018002e8f0     libucrt:fpctrl.obj
 0004:000018fc       $pdata$_IsNonwritableInCurrentImage$filt$0 000000018002e8fc     LIBCMT:pesect.obj
 0004:00001908       $pdata$??__Fmsgpack_unpack_template@@YAXXZ 000000018002e908     msgpack.obj
 0004:00001914       $pdata$??__Fsbuffers@@YAXXZ 000000018002e914     msgpack.obj
 0005:00000060       $R000000                   000000018002f060     * linker generated manifest res *

 Exports

  ordinal    name

        1    _register_msgpackBinding_
        2    msgpack_object_equal
        3    msgpack_object_print
        4    msgpack_unpack
        5    msgpack_unpack_next
        6    msgpack_unpacker_data
        7    msgpack_unpacker_destroy
        8    msgpack_unpacker_execute
        9    msgpack_unpacker_expand_buffer
       10    msgpack_unpacker_flush_zone
       11    msgpack_unpacker_free
       12    msgpack_unpacker_init
       13    msgpack_unpacker_new
       14    msgpack_unpacker_next
       15    msgpack_unpacker_release_zone
       16    msgpack_unpacker_reset
       17    msgpack_unpacker_reset_zone
       18    msgpack_zone_clear
       19    msgpack_zone_destroy
       20    msgpack_zone_free
       21    msgpack_zone_init
       22    msgpack_zone_is_empty
       23    msgpack_zone_malloc_expand
       24    msgpack_zone_new
